
kernel8.elf:     file format elf64-littleaarch64


Disassembly of section .text:

0000000000080000 <_start>:
   80000:	aa0003ea 	mov	x10, x0
   80004:	aa0103eb 	mov	x11, x1
   80008:	aa0203ec 	mov	x12, x2
   8000c:	aa0303ed 	mov	x13, x3
   80010:	d53800a1 	mrs	x1, mpidr_el1
   80014:	92400421 	and	x1, x1, #0x3
   80018:	b4000061 	cbz	x1, 80024 <_start+0x24>
   8001c:	d503205f 	wfe
   80020:	17ffffff 	b	8001c <_start+0x1c>
   80024:	58004be1 	ldr	x1, 809a0 <_reload_start+0x8>
   80028:	9100003f 	mov	sp, x1
   8002c:	58004be2 	ldr	x2, 809a8 <_reload_start+0x10>
   80030:	d518c002 	msr	vbar_el1, x2
   80034:	d53e1000 	mrs	x0, sctlr_el3
   80038:	b27e0000 	orr	x0, x0, #0x4
   8003c:	b2750000 	orr	x0, x0, #0x800
   80040:	b2740000 	orr	x0, x0, #0x1000
   80044:	d51e1000 	msr	sctlr_el3, x0
   80048:	58004b41 	ldr	x1, 809b0 <_reload_start+0x18>
   8004c:	18004a62 	ldr	w2, 80998 <_reload_start>
   80050:	34000082 	cbz	w2, 80060 <_start+0x60>
   80054:	f800843f 	str	xzr, [x1], #8
   80058:	51000442 	sub	w2, w2, #0x1
   8005c:	35ffffa2 	cbnz	w2, 80050 <_start+0x50>
   80060:	9400054a 	bl	81588 <main>
   80064:	17ffffee 	b	8001c <_start+0x1c>
   80068:	d503201f 	nop
   8006c:	d503201f 	nop
   80070:	d503201f 	nop
   80074:	d503201f 	nop
   80078:	d503201f 	nop
   8007c:	d503201f 	nop
   80080:	d503201f 	nop
   80084:	d503201f 	nop
   80088:	d503201f 	nop
   8008c:	d503201f 	nop
   80090:	d503201f 	nop
   80094:	d503201f 	nop
   80098:	d503201f 	nop
   8009c:	d503201f 	nop
   800a0:	d503201f 	nop
   800a4:	d503201f 	nop
   800a8:	d503201f 	nop
   800ac:	d503201f 	nop
   800b0:	d503201f 	nop
   800b4:	d503201f 	nop
   800b8:	d503201f 	nop
   800bc:	d503201f 	nop
   800c0:	d503201f 	nop
   800c4:	d503201f 	nop
   800c8:	d503201f 	nop
   800cc:	d503201f 	nop
   800d0:	d503201f 	nop
   800d4:	d503201f 	nop
   800d8:	d503201f 	nop
   800dc:	d503201f 	nop
   800e0:	d503201f 	nop
   800e4:	d503201f 	nop
   800e8:	d503201f 	nop
   800ec:	d503201f 	nop
   800f0:	d503201f 	nop
   800f4:	d503201f 	nop
   800f8:	d503201f 	nop
   800fc:	d503201f 	nop
   80100:	d503201f 	nop
   80104:	d503201f 	nop
   80108:	d503201f 	nop
   8010c:	d503201f 	nop
   80110:	d503201f 	nop
   80114:	d503201f 	nop
   80118:	d503201f 	nop
   8011c:	d503201f 	nop
   80120:	d503201f 	nop
   80124:	d503201f 	nop
   80128:	d503201f 	nop
   8012c:	d503201f 	nop
   80130:	d503201f 	nop
   80134:	d503201f 	nop
   80138:	d503201f 	nop
   8013c:	d503201f 	nop
   80140:	d503201f 	nop
   80144:	d503201f 	nop
   80148:	d503201f 	nop
   8014c:	d503201f 	nop
   80150:	d503201f 	nop
   80154:	d503201f 	nop
   80158:	d503201f 	nop
   8015c:	d503201f 	nop
   80160:	d503201f 	nop
   80164:	d503201f 	nop
   80168:	d503201f 	nop
   8016c:	d503201f 	nop
   80170:	d503201f 	nop
   80174:	d503201f 	nop
   80178:	d503201f 	nop
   8017c:	d503201f 	nop
   80180:	d503201f 	nop
   80184:	d503201f 	nop
   80188:	d503201f 	nop
   8018c:	d503201f 	nop
   80190:	d503201f 	nop
   80194:	d503201f 	nop
   80198:	d503201f 	nop
   8019c:	d503201f 	nop
   801a0:	d503201f 	nop
   801a4:	d503201f 	nop
   801a8:	d503201f 	nop
   801ac:	d503201f 	nop
   801b0:	d503201f 	nop
   801b4:	d503201f 	nop
   801b8:	d503201f 	nop
   801bc:	d503201f 	nop
   801c0:	d503201f 	nop
   801c4:	d503201f 	nop
   801c8:	d503201f 	nop
   801cc:	d503201f 	nop
   801d0:	d503201f 	nop
   801d4:	d503201f 	nop
   801d8:	d503201f 	nop
   801dc:	d503201f 	nop
   801e0:	d503201f 	nop
   801e4:	d503201f 	nop
   801e8:	d503201f 	nop
   801ec:	d503201f 	nop
   801f0:	d503201f 	nop
   801f4:	d503201f 	nop
   801f8:	d503201f 	nop
   801fc:	d503201f 	nop
   80200:	d503201f 	nop
   80204:	d503201f 	nop
   80208:	d503201f 	nop
   8020c:	d503201f 	nop
   80210:	d503201f 	nop
   80214:	d503201f 	nop
   80218:	d503201f 	nop
   8021c:	d503201f 	nop
   80220:	d503201f 	nop
   80224:	d503201f 	nop
   80228:	d503201f 	nop
   8022c:	d503201f 	nop
   80230:	d503201f 	nop
   80234:	d503201f 	nop
   80238:	d503201f 	nop
   8023c:	d503201f 	nop
   80240:	d503201f 	nop
   80244:	d503201f 	nop
   80248:	d503201f 	nop
   8024c:	d503201f 	nop
   80250:	d503201f 	nop
   80254:	d503201f 	nop
   80258:	d503201f 	nop
   8025c:	d503201f 	nop
   80260:	d503201f 	nop
   80264:	d503201f 	nop
   80268:	d503201f 	nop
   8026c:	d503201f 	nop
   80270:	d503201f 	nop
   80274:	d503201f 	nop
   80278:	d503201f 	nop
   8027c:	d503201f 	nop
   80280:	d503201f 	nop
   80284:	d503201f 	nop
   80288:	d503201f 	nop
   8028c:	d503201f 	nop
   80290:	d503201f 	nop
   80294:	d503201f 	nop
   80298:	d503201f 	nop
   8029c:	d503201f 	nop
   802a0:	d503201f 	nop
   802a4:	d503201f 	nop
   802a8:	d503201f 	nop
   802ac:	d503201f 	nop
   802b0:	d503201f 	nop
   802b4:	d503201f 	nop
   802b8:	d503201f 	nop
   802bc:	d503201f 	nop
   802c0:	d503201f 	nop
   802c4:	d503201f 	nop
   802c8:	d503201f 	nop
   802cc:	d503201f 	nop
   802d0:	d503201f 	nop
   802d4:	d503201f 	nop
   802d8:	d503201f 	nop
   802dc:	d503201f 	nop
   802e0:	d503201f 	nop
   802e4:	d503201f 	nop
   802e8:	d503201f 	nop
   802ec:	d503201f 	nop
   802f0:	d503201f 	nop
   802f4:	d503201f 	nop
   802f8:	d503201f 	nop
   802fc:	d503201f 	nop
   80300:	d503201f 	nop
   80304:	d503201f 	nop
   80308:	d503201f 	nop
   8030c:	d503201f 	nop
   80310:	d503201f 	nop
   80314:	d503201f 	nop
   80318:	d503201f 	nop
   8031c:	d503201f 	nop
   80320:	d503201f 	nop
   80324:	d503201f 	nop
   80328:	d503201f 	nop
   8032c:	d503201f 	nop
   80330:	d503201f 	nop
   80334:	d503201f 	nop
   80338:	d503201f 	nop
   8033c:	d503201f 	nop
   80340:	d503201f 	nop
   80344:	d503201f 	nop
   80348:	d503201f 	nop
   8034c:	d503201f 	nop
   80350:	d503201f 	nop
   80354:	d503201f 	nop
   80358:	d503201f 	nop
   8035c:	d503201f 	nop
   80360:	d503201f 	nop
   80364:	d503201f 	nop
   80368:	d503201f 	nop
   8036c:	d503201f 	nop
   80370:	d503201f 	nop
   80374:	d503201f 	nop
   80378:	d503201f 	nop
   8037c:	d503201f 	nop
   80380:	d503201f 	nop
   80384:	d503201f 	nop
   80388:	d503201f 	nop
   8038c:	d503201f 	nop
   80390:	d503201f 	nop
   80394:	d503201f 	nop
   80398:	d503201f 	nop
   8039c:	d503201f 	nop
   803a0:	d503201f 	nop
   803a4:	d503201f 	nop
   803a8:	d503201f 	nop
   803ac:	d503201f 	nop
   803b0:	d503201f 	nop
   803b4:	d503201f 	nop
   803b8:	d503201f 	nop
   803bc:	d503201f 	nop
   803c0:	d503201f 	nop
   803c4:	d503201f 	nop
   803c8:	d503201f 	nop
   803cc:	d503201f 	nop
   803d0:	d503201f 	nop
   803d4:	d503201f 	nop
   803d8:	d503201f 	nop
   803dc:	d503201f 	nop
   803e0:	d503201f 	nop
   803e4:	d503201f 	nop
   803e8:	d503201f 	nop
   803ec:	d503201f 	nop
   803f0:	d503201f 	nop
   803f4:	d503201f 	nop
   803f8:	d503201f 	nop
   803fc:	d503201f 	nop
   80400:	d503201f 	nop
   80404:	d503201f 	nop
   80408:	d503201f 	nop
   8040c:	d503201f 	nop
   80410:	d503201f 	nop
   80414:	d503201f 	nop
   80418:	d503201f 	nop
   8041c:	d503201f 	nop
   80420:	d503201f 	nop
   80424:	d503201f 	nop
   80428:	d503201f 	nop
   8042c:	d503201f 	nop
   80430:	d503201f 	nop
   80434:	d503201f 	nop
   80438:	d503201f 	nop
   8043c:	d503201f 	nop
   80440:	d503201f 	nop
   80444:	d503201f 	nop
   80448:	d503201f 	nop
   8044c:	d503201f 	nop
   80450:	d503201f 	nop
   80454:	d503201f 	nop
   80458:	d503201f 	nop
   8045c:	d503201f 	nop
   80460:	d503201f 	nop
   80464:	d503201f 	nop
   80468:	d503201f 	nop
   8046c:	d503201f 	nop
   80470:	d503201f 	nop
   80474:	d503201f 	nop
   80478:	d503201f 	nop
   8047c:	d503201f 	nop
   80480:	d503201f 	nop
   80484:	d503201f 	nop
   80488:	d503201f 	nop
   8048c:	d503201f 	nop
   80490:	d503201f 	nop
   80494:	d503201f 	nop
   80498:	d503201f 	nop
   8049c:	d503201f 	nop
   804a0:	d503201f 	nop
   804a4:	d503201f 	nop
   804a8:	d503201f 	nop
   804ac:	d503201f 	nop
   804b0:	d503201f 	nop
   804b4:	d503201f 	nop
   804b8:	d503201f 	nop
   804bc:	d503201f 	nop
   804c0:	d503201f 	nop
   804c4:	d503201f 	nop
   804c8:	d503201f 	nop
   804cc:	d503201f 	nop
   804d0:	d503201f 	nop
   804d4:	d503201f 	nop
   804d8:	d503201f 	nop
   804dc:	d503201f 	nop
   804e0:	d503201f 	nop
   804e4:	d503201f 	nop
   804e8:	d503201f 	nop
   804ec:	d503201f 	nop
   804f0:	d503201f 	nop
   804f4:	d503201f 	nop
   804f8:	d503201f 	nop
   804fc:	d503201f 	nop
   80500:	d503201f 	nop
   80504:	d503201f 	nop
   80508:	d503201f 	nop
   8050c:	d503201f 	nop
   80510:	d503201f 	nop
   80514:	d503201f 	nop
   80518:	d503201f 	nop
   8051c:	d503201f 	nop
   80520:	d503201f 	nop
   80524:	d503201f 	nop
   80528:	d503201f 	nop
   8052c:	d503201f 	nop
   80530:	d503201f 	nop
   80534:	d503201f 	nop
   80538:	d503201f 	nop
   8053c:	d503201f 	nop
   80540:	d503201f 	nop
   80544:	d503201f 	nop
   80548:	d503201f 	nop
   8054c:	d503201f 	nop
   80550:	d503201f 	nop
   80554:	d503201f 	nop
   80558:	d503201f 	nop
   8055c:	d503201f 	nop
   80560:	d503201f 	nop
   80564:	d503201f 	nop
   80568:	d503201f 	nop
   8056c:	d503201f 	nop
   80570:	d503201f 	nop
   80574:	d503201f 	nop
   80578:	d503201f 	nop
   8057c:	d503201f 	nop
   80580:	d503201f 	nop
   80584:	d503201f 	nop
   80588:	d503201f 	nop
   8058c:	d503201f 	nop
   80590:	d503201f 	nop
   80594:	d503201f 	nop
   80598:	d503201f 	nop
   8059c:	d503201f 	nop
   805a0:	d503201f 	nop
   805a4:	d503201f 	nop
   805a8:	d503201f 	nop
   805ac:	d503201f 	nop
   805b0:	d503201f 	nop
   805b4:	d503201f 	nop
   805b8:	d503201f 	nop
   805bc:	d503201f 	nop
   805c0:	d503201f 	nop
   805c4:	d503201f 	nop
   805c8:	d503201f 	nop
   805cc:	d503201f 	nop
   805d0:	d503201f 	nop
   805d4:	d503201f 	nop
   805d8:	d503201f 	nop
   805dc:	d503201f 	nop
   805e0:	d503201f 	nop
   805e4:	d503201f 	nop
   805e8:	d503201f 	nop
   805ec:	d503201f 	nop
   805f0:	d503201f 	nop
   805f4:	d503201f 	nop
   805f8:	d503201f 	nop
   805fc:	d503201f 	nop
   80600:	d503201f 	nop
   80604:	d503201f 	nop
   80608:	d503201f 	nop
   8060c:	d503201f 	nop
   80610:	d503201f 	nop
   80614:	d503201f 	nop
   80618:	d503201f 	nop
   8061c:	d503201f 	nop
   80620:	d503201f 	nop
   80624:	d503201f 	nop
   80628:	d503201f 	nop
   8062c:	d503201f 	nop
   80630:	d503201f 	nop
   80634:	d503201f 	nop
   80638:	d503201f 	nop
   8063c:	d503201f 	nop
   80640:	d503201f 	nop
   80644:	d503201f 	nop
   80648:	d503201f 	nop
   8064c:	d503201f 	nop
   80650:	d503201f 	nop
   80654:	d503201f 	nop
   80658:	d503201f 	nop
   8065c:	d503201f 	nop
   80660:	d503201f 	nop
   80664:	d503201f 	nop
   80668:	d503201f 	nop
   8066c:	d503201f 	nop
   80670:	d503201f 	nop
   80674:	d503201f 	nop
   80678:	d503201f 	nop
   8067c:	d503201f 	nop
   80680:	d503201f 	nop
   80684:	d503201f 	nop
   80688:	d503201f 	nop
   8068c:	d503201f 	nop
   80690:	d503201f 	nop
   80694:	d503201f 	nop
   80698:	d503201f 	nop
   8069c:	d503201f 	nop
   806a0:	d503201f 	nop
   806a4:	d503201f 	nop
   806a8:	d503201f 	nop
   806ac:	d503201f 	nop
   806b0:	d503201f 	nop
   806b4:	d503201f 	nop
   806b8:	d503201f 	nop
   806bc:	d503201f 	nop
   806c0:	d503201f 	nop
   806c4:	d503201f 	nop
   806c8:	d503201f 	nop
   806cc:	d503201f 	nop
   806d0:	d503201f 	nop
   806d4:	d503201f 	nop
   806d8:	d503201f 	nop
   806dc:	d503201f 	nop
   806e0:	d503201f 	nop
   806e4:	d503201f 	nop
   806e8:	d503201f 	nop
   806ec:	d503201f 	nop
   806f0:	d503201f 	nop
   806f4:	d503201f 	nop
   806f8:	d503201f 	nop
   806fc:	d503201f 	nop
   80700:	d503201f 	nop
   80704:	d503201f 	nop
   80708:	d503201f 	nop
   8070c:	d503201f 	nop
   80710:	d503201f 	nop
   80714:	d503201f 	nop
   80718:	d503201f 	nop
   8071c:	d503201f 	nop
   80720:	d503201f 	nop
   80724:	d503201f 	nop
   80728:	d503201f 	nop
   8072c:	d503201f 	nop
   80730:	d503201f 	nop
   80734:	d503201f 	nop
   80738:	d503201f 	nop
   8073c:	d503201f 	nop
   80740:	d503201f 	nop
   80744:	d503201f 	nop
   80748:	d503201f 	nop
   8074c:	d503201f 	nop
   80750:	d503201f 	nop
   80754:	d503201f 	nop
   80758:	d503201f 	nop
   8075c:	d503201f 	nop
   80760:	d503201f 	nop
   80764:	d503201f 	nop
   80768:	d503201f 	nop
   8076c:	d503201f 	nop
   80770:	d503201f 	nop
   80774:	d503201f 	nop
   80778:	d503201f 	nop
   8077c:	d503201f 	nop
   80780:	d503201f 	nop
   80784:	d503201f 	nop
   80788:	d503201f 	nop
   8078c:	d503201f 	nop
   80790:	d503201f 	nop
   80794:	d503201f 	nop
   80798:	d503201f 	nop
   8079c:	d503201f 	nop
   807a0:	d503201f 	nop
   807a4:	d503201f 	nop
   807a8:	d503201f 	nop
   807ac:	d503201f 	nop
   807b0:	d503201f 	nop
   807b4:	d503201f 	nop
   807b8:	d503201f 	nop
   807bc:	d503201f 	nop
   807c0:	d503201f 	nop
   807c4:	d503201f 	nop
   807c8:	d503201f 	nop
   807cc:	d503201f 	nop
   807d0:	d503201f 	nop
   807d4:	d503201f 	nop
   807d8:	d503201f 	nop
   807dc:	d503201f 	nop
   807e0:	d503201f 	nop
   807e4:	d503201f 	nop
   807e8:	d503201f 	nop
   807ec:	d503201f 	nop
   807f0:	d503201f 	nop
   807f4:	d503201f 	nop
   807f8:	d503201f 	nop
   807fc:	d503201f 	nop

0000000000080800 <_vectors>:
   80800:	d2800000 	mov	x0, #0x0                   	// #0
   80804:	d5385201 	mrs	x1, esr_el1
   80808:	d5384022 	mrs	x2, elr_el1
   8080c:	d5384003 	mrs	x3, spsr_el1
   80810:	d5386004 	mrs	x4, far_el1
   80814:	140003b5 	b	816e8 <exc_handler>
   80818:	d503201f 	nop
   8081c:	d503201f 	nop
   80820:	d503201f 	nop
   80824:	d503201f 	nop
   80828:	d503201f 	nop
   8082c:	d503201f 	nop
   80830:	d503201f 	nop
   80834:	d503201f 	nop
   80838:	d503201f 	nop
   8083c:	d503201f 	nop
   80840:	d503201f 	nop
   80844:	d503201f 	nop
   80848:	d503201f 	nop
   8084c:	d503201f 	nop
   80850:	d503201f 	nop
   80854:	d503201f 	nop
   80858:	d503201f 	nop
   8085c:	d503201f 	nop
   80860:	d503201f 	nop
   80864:	d503201f 	nop
   80868:	d503201f 	nop
   8086c:	d503201f 	nop
   80870:	d503201f 	nop
   80874:	d503201f 	nop
   80878:	d503201f 	nop
   8087c:	d503201f 	nop
   80880:	d2800020 	mov	x0, #0x1                   	// #1
   80884:	d5385201 	mrs	x1, esr_el1
   80888:	d5384022 	mrs	x2, elr_el1
   8088c:	d5384003 	mrs	x3, spsr_el1
   80890:	d5386004 	mrs	x4, far_el1
   80894:	14000395 	b	816e8 <exc_handler>
   80898:	d503201f 	nop
   8089c:	d503201f 	nop
   808a0:	d503201f 	nop
   808a4:	d503201f 	nop
   808a8:	d503201f 	nop
   808ac:	d503201f 	nop
   808b0:	d503201f 	nop
   808b4:	d503201f 	nop
   808b8:	d503201f 	nop
   808bc:	d503201f 	nop
   808c0:	d503201f 	nop
   808c4:	d503201f 	nop
   808c8:	d503201f 	nop
   808cc:	d503201f 	nop
   808d0:	d503201f 	nop
   808d4:	d503201f 	nop
   808d8:	d503201f 	nop
   808dc:	d503201f 	nop
   808e0:	d503201f 	nop
   808e4:	d503201f 	nop
   808e8:	d503201f 	nop
   808ec:	d503201f 	nop
   808f0:	d503201f 	nop
   808f4:	d503201f 	nop
   808f8:	d503201f 	nop
   808fc:	d503201f 	nop
   80900:	d2800040 	mov	x0, #0x2                   	// #2
   80904:	d5385201 	mrs	x1, esr_el1
   80908:	d5384022 	mrs	x2, elr_el1
   8090c:	d5384003 	mrs	x3, spsr_el1
   80910:	d5386004 	mrs	x4, far_el1
   80914:	14000375 	b	816e8 <exc_handler>
   80918:	d503201f 	nop
   8091c:	d503201f 	nop
   80920:	d503201f 	nop
   80924:	d503201f 	nop
   80928:	d503201f 	nop
   8092c:	d503201f 	nop
   80930:	d503201f 	nop
   80934:	d503201f 	nop
   80938:	d503201f 	nop
   8093c:	d503201f 	nop
   80940:	d503201f 	nop
   80944:	d503201f 	nop
   80948:	d503201f 	nop
   8094c:	d503201f 	nop
   80950:	d503201f 	nop
   80954:	d503201f 	nop
   80958:	d503201f 	nop
   8095c:	d503201f 	nop
   80960:	d503201f 	nop
   80964:	d503201f 	nop
   80968:	d503201f 	nop
   8096c:	d503201f 	nop
   80970:	d503201f 	nop
   80974:	d503201f 	nop
   80978:	d503201f 	nop
   8097c:	d503201f 	nop
   80980:	d2800060 	mov	x0, #0x3                   	// #3
   80984:	d5385201 	mrs	x1, esr_el1
   80988:	d5384022 	mrs	x2, elr_el1
   8098c:	d5384003 	mrs	x3, spsr_el1
   80990:	d5386004 	mrs	x4, far_el1
   80994:	14000355 	b	816e8 <exc_handler>

0000000000080998 <_reload_start>:
   80998:	00000204 	.word	0x00000204
   8099c:	00000000 	.inst	0x00000000 ; undefined
   809a0:	00080000 	.word	0x00080000
   809a4:	00000000 	.word	0x00000000
   809a8:	00080800 	.word	0x00080800
   809ac:	00000000 	.word	0x00000000
   809b0:	00082080 	.word	0x00082080
   809b4:	00000000 	.word	0x00000000

00000000000809b8 <reload_initial>:
   809b8:	d2820302 	mov	x2, #0x1018                	// #4120
   809bc:	f2a7e402 	movk	x2, #0x3f20, lsl #16
   809c0:	d503201f 	nop
   809c4:	b9400041 	ldr	w1, [x2]
   809c8:	372fffc1 	tbnz	w1, #5, 809c0 <reload_initial+0x8>
   809cc:	d2820001 	mov	x1, #0x1000                	// #4096
   809d0:	d2820302 	mov	x2, #0x1018                	// #4120
   809d4:	f2a7e401 	movk	x1, #0x3f20, lsl #16
   809d8:	52800923 	mov	w3, #0x49                  	// #73
   809dc:	f2a7e402 	movk	x2, #0x3f20, lsl #16
   809e0:	b9000023 	str	w3, [x1]
   809e4:	d503201f 	nop
   809e8:	d503201f 	nop
   809ec:	b9400041 	ldr	w1, [x2]
   809f0:	372fffc1 	tbnz	w1, #5, 809e8 <reload_initial+0x30>
   809f4:	d2820001 	mov	x1, #0x1000                	// #4096
   809f8:	d2820302 	mov	x2, #0x1018                	// #4120
   809fc:	f2a7e401 	movk	x1, #0x3f20, lsl #16
   80a00:	52800dc3 	mov	w3, #0x6e                  	// #110
   80a04:	f2a7e402 	movk	x2, #0x3f20, lsl #16
   80a08:	b9000023 	str	w3, [x1]
   80a0c:	d503201f 	nop
   80a10:	d503201f 	nop
   80a14:	b9400041 	ldr	w1, [x2]
   80a18:	372fffc1 	tbnz	w1, #5, 80a10 <reload_initial+0x58>
   80a1c:	d2820001 	mov	x1, #0x1000                	// #4096
   80a20:	d2820302 	mov	x2, #0x1018                	// #4120
   80a24:	f2a7e401 	movk	x1, #0x3f20, lsl #16
   80a28:	52800d23 	mov	w3, #0x69                  	// #105
   80a2c:	f2a7e402 	movk	x2, #0x3f20, lsl #16
   80a30:	b9000023 	str	w3, [x1]
   80a34:	d503201f 	nop
   80a38:	d503201f 	nop
   80a3c:	b9400041 	ldr	w1, [x2]
   80a40:	372fffc1 	tbnz	w1, #5, 80a38 <reload_initial+0x80>
   80a44:	d2820001 	mov	x1, #0x1000                	// #4096
   80a48:	d2820302 	mov	x2, #0x1018                	// #4120
   80a4c:	f2a7e401 	movk	x1, #0x3f20, lsl #16
   80a50:	52800e83 	mov	w3, #0x74                  	// #116
   80a54:	f2a7e402 	movk	x2, #0x3f20, lsl #16
   80a58:	b9000023 	str	w3, [x1]
   80a5c:	d503201f 	nop
   80a60:	d503201f 	nop
   80a64:	b9400041 	ldr	w1, [x2]
   80a68:	372fffc1 	tbnz	w1, #5, 80a60 <reload_initial+0xa8>
   80a6c:	d2820004 	mov	x4, #0x1000                	// #4096
   80a70:	52800401 	mov	w1, #0x20                  	// #32
   80a74:	f2a7e404 	movk	x4, #0x3f20, lsl #16
   80a78:	b9000081 	str	w1, [x4]
   80a7c:	39400003 	ldrb	w3, [x0]
   80a80:	34000183 	cbz	w3, 80ab0 <reload_initial+0xf8>
   80a84:	d2820302 	mov	x2, #0x1018                	// #4120
   80a88:	f2a7e402 	movk	x2, #0x3f20, lsl #16
   80a8c:	d503201f 	nop
   80a90:	91000400 	add	x0, x0, #0x1
   80a94:	d503201f 	nop
   80a98:	d503201f 	nop
   80a9c:	b9400041 	ldr	w1, [x2]
   80aa0:	372fffc1 	tbnz	w1, #5, 80a98 <reload_initial+0xe0>
   80aa4:	b9000083 	str	w3, [x4]
   80aa8:	39400003 	ldrb	w3, [x0]
   80aac:	35ffff23 	cbnz	w3, 80a90 <reload_initial+0xd8>
   80ab0:	d2820301 	mov	x1, #0x1018                	// #4120
   80ab4:	f2a7e401 	movk	x1, #0x3f20, lsl #16
   80ab8:	d503201f 	nop
   80abc:	b9400020 	ldr	w0, [x1]
   80ac0:	372fffc0 	tbnz	w0, #5, 80ab8 <reload_initial+0x100>
   80ac4:	d2820000 	mov	x0, #0x1000                	// #4096
   80ac8:	d2820301 	mov	x1, #0x1018                	// #4120
   80acc:	f2a7e400 	movk	x0, #0x3f20, lsl #16
   80ad0:	52800142 	mov	w2, #0xa                   	// #10
   80ad4:	f2a7e401 	movk	x1, #0x3f20, lsl #16
   80ad8:	b9000002 	str	w2, [x0]
   80adc:	d503201f 	nop
   80ae0:	d503201f 	nop
   80ae4:	b9400020 	ldr	w0, [x1]
   80ae8:	3727ffc0 	tbnz	w0, #4, 80ae0 <reload_initial+0x128>
   80aec:	d2820000 	mov	x0, #0x1000                	// #4096
   80af0:	d2820301 	mov	x1, #0x1018                	// #4120
   80af4:	f2a7e400 	movk	x0, #0x3f20, lsl #16
   80af8:	f2a7e401 	movk	x1, #0x3f20, lsl #16
   80afc:	b9400003 	ldr	w3, [x0]
   80b00:	12001c66 	and	w6, w3, #0xff
   80b04:	d503201f 	nop
   80b08:	d503201f 	nop
   80b0c:	b9400020 	ldr	w0, [x1]
   80b10:	372fffc0 	tbnz	w0, #5, 80b08 <reload_initial+0x150>
   80b14:	d2820000 	mov	x0, #0x1000                	// #4096
   80b18:	d2820301 	mov	x1, #0x1018                	// #4120
   80b1c:	f2a7e400 	movk	x0, #0x3f20, lsl #16
   80b20:	f2a7e401 	movk	x1, #0x3f20, lsl #16
   80b24:	b9000006 	str	w6, [x0]
   80b28:	d503201f 	nop
   80b2c:	b9400020 	ldr	w0, [x1]
   80b30:	3727ffc0 	tbnz	w0, #4, 80b28 <reload_initial+0x170>
   80b34:	d2820000 	mov	x0, #0x1000                	// #4096
   80b38:	d2820301 	mov	x1, #0x1018                	// #4120
   80b3c:	f2a7e400 	movk	x0, #0x3f20, lsl #16
   80b40:	f2a7e401 	movk	x1, #0x3f20, lsl #16
   80b44:	b9400005 	ldr	w5, [x0]
   80b48:	12001ca2 	and	w2, w5, #0xff
   80b4c:	d503201f 	nop
   80b50:	d503201f 	nop
   80b54:	b9400020 	ldr	w0, [x1]
   80b58:	372fffc0 	tbnz	w0, #5, 80b50 <reload_initial+0x198>
   80b5c:	d2820000 	mov	x0, #0x1000                	// #4096
   80b60:	d2820301 	mov	x1, #0x1018                	// #4120
   80b64:	f2a7e400 	movk	x0, #0x3f20, lsl #16
   80b68:	f2a7e401 	movk	x1, #0x3f20, lsl #16
   80b6c:	b9000002 	str	w2, [x0]
   80b70:	d503201f 	nop
   80b74:	b9400020 	ldr	w0, [x1]
   80b78:	3727ffc0 	tbnz	w0, #4, 80b70 <reload_initial+0x1b8>
   80b7c:	d2820000 	mov	x0, #0x1000                	// #4096
   80b80:	d2820302 	mov	x2, #0x1018                	// #4120
   80b84:	f2a7e400 	movk	x0, #0x3f20, lsl #16
   80b88:	f2a7e402 	movk	x2, #0x3f20, lsl #16
   80b8c:	b9400000 	ldr	w0, [x0]
   80b90:	12001c03 	and	w3, w0, #0xff
   80b94:	d503201f 	nop
   80b98:	d503201f 	nop
   80b9c:	b9400041 	ldr	w1, [x2]
   80ba0:	372fffc1 	tbnz	w1, #5, 80b98 <reload_initial+0x1e0>
   80ba4:	d2820001 	mov	x1, #0x1000                	// #4096
   80ba8:	d2820302 	mov	x2, #0x1018                	// #4120
   80bac:	f2a7e401 	movk	x1, #0x3f20, lsl #16
   80bb0:	f2a7e402 	movk	x2, #0x3f20, lsl #16
   80bb4:	b9000023 	str	w3, [x1]
   80bb8:	d503201f 	nop
   80bbc:	b9400041 	ldr	w1, [x2]
   80bc0:	3727ffc1 	tbnz	w1, #4, 80bb8 <reload_initial+0x200>
   80bc4:	d2820001 	mov	x1, #0x1000                	// #4096
   80bc8:	d2820302 	mov	x2, #0x1018                	// #4120
   80bcc:	f2a7e401 	movk	x1, #0x3f20, lsl #16
   80bd0:	f2a7e402 	movk	x2, #0x3f20, lsl #16
   80bd4:	b9400023 	ldr	w3, [x1]
   80bd8:	12001c67 	and	w7, w3, #0xff
   80bdc:	d503201f 	nop
   80be0:	d503201f 	nop
   80be4:	b9400041 	ldr	w1, [x2]
   80be8:	372fffc1 	tbnz	w1, #5, 80be0 <reload_initial+0x228>
   80bec:	d2820004 	mov	x4, #0x1000                	// #4096
   80bf0:	53101c00 	ubfiz	w0, w0, #16, #8
   80bf4:	f2a7e404 	movk	x4, #0x3f20, lsl #16
   80bf8:	53181ca5 	ubfiz	w5, w5, #8, #8
   80bfc:	2a0360c3 	orr	w3, w6, w3, lsl #24
   80c00:	2a050000 	orr	w0, w0, w5
   80c04:	b9000087 	str	w7, [x4]
   80c08:	2a030000 	orr	w0, w0, w3
   80c0c:	34000440 	cbz	w0, 80c94 <reload_initial+0x2dc>
   80c10:	d0000008 	adrp	x8, 82000 <DATE>
   80c14:	d0000007 	adrp	x7, 82000 <DATE>
   80c18:	51000400 	sub	w0, w0, #0x1
   80c1c:	d2a00102 	mov	x2, #0x80000               	// #524288
   80c20:	91420003 	add	x3, x0, #0x80, lsl #12
   80c24:	f9400d08 	ldr	x8, [x8, #24]
   80c28:	f94014e7 	ldr	x7, [x7, #40]
   80c2c:	d2820300 	mov	x0, #0x1018                	// #4120
   80c30:	91000463 	add	x3, x3, #0x1
   80c34:	f2a7e400 	movk	x0, #0x3f20, lsl #16
   80c38:	d503201f 	nop
   80c3c:	b9400001 	ldr	w1, [x0]
   80c40:	3727ffc1 	tbnz	w1, #4, 80c38 <reload_initial+0x280>
   80c44:	b9400085 	ldr	w5, [x4]
   80c48:	12001ca6 	and	w6, w5, #0xff
   80c4c:	d503201f 	nop
   80c50:	d503201f 	nop
   80c54:	b9400001 	ldr	w1, [x0]
   80c58:	372fffc1 	tbnz	w1, #5, 80c50 <reload_initial+0x298>
   80c5c:	b9000086 	str	w6, [x4]
   80c60:	eb08005f 	cmp	x2, x8
   80c64:	fa472042 	ccmp	x2, x7, #0x2, cs  // cs = hs, nlast
   80c68:	54000049 	b.ls	80c70 <reload_initial+0x2b8>  // b.plast
   80c6c:	39000045 	strb	w5, [x2]
   80c70:	91000442 	add	x2, x2, #0x1
   80c74:	eb02007f 	cmp	x3, x2
   80c78:	54fffe01 	b.ne	80c38 <reload_initial+0x280>  // b.any
   80c7c:	aa0a03e0 	mov	x0, x10
   80c80:	aa0b03e1 	mov	x1, x11
   80c84:	aa0c03e2 	mov	x2, x12
   80c88:	aa0d03e3 	mov	x3, x13
   80c8c:	d2a0011e 	mov	x30, #0x80000               	// #524288
   80c90:	d65f03c0 	ret
   80c94:	d65f03c0 	ret

0000000000080c98 <mbox_call>:
   80c98:	d0000004 	adrp	x4, 82000 <DATE>
   80c9c:	12000c00 	and	w0, w0, #0xf
   80ca0:	d2971301 	mov	x1, #0xb898                	// #47256
   80ca4:	f9400882 	ldr	x2, [x4, #16]
   80ca8:	f2a7e001 	movk	x1, #0x3f00, lsl #16
   80cac:	2a020002 	orr	w2, w0, w2
   80cb0:	d503201f 	nop
   80cb4:	b9400020 	ldr	w0, [x1]
   80cb8:	37ffffc0 	tbnz	w0, #31, 80cb0 <mbox_call+0x18>
   80cbc:	d2971400 	mov	x0, #0xb8a0                	// #47264
   80cc0:	d2971301 	mov	x1, #0xb898                	// #47256
   80cc4:	f2a7e000 	movk	x0, #0x3f00, lsl #16
   80cc8:	d2971003 	mov	x3, #0xb880                	// #47232
   80ccc:	f2a7e001 	movk	x1, #0x3f00, lsl #16
   80cd0:	f2a7e003 	movk	x3, #0x3f00, lsl #16
   80cd4:	b9000002 	str	w2, [x0]
   80cd8:	d503201f 	nop
   80cdc:	b9400020 	ldr	w0, [x1]
   80ce0:	37f7ffc0 	tbnz	w0, #30, 80cd8 <mbox_call+0x40>
   80ce4:	b9400060 	ldr	w0, [x3]
   80ce8:	6b02001f 	cmp	w0, w2
   80cec:	54ffff61 	b.ne	80cd8 <mbox_call+0x40>  // b.any
   80cf0:	f9400884 	ldr	x4, [x4, #16]
   80cf4:	52b00000 	mov	w0, #0x80000000            	// #-2147483648
   80cf8:	b9400481 	ldr	w1, [x4, #4]
   80cfc:	6b00003f 	cmp	w1, w0
   80d00:	1a9f17e0 	cset	w0, eq  // eq = none
   80d04:	d65f03c0 	ret

0000000000080d08 <mmu_init>:
   80d08:	d0000009 	adrp	x9, 82000 <DATE>
   80d0c:	d0000005 	adrp	x5, 82000 <DATE>
   80d10:	d280e861 	mov	x1, #0x743                 	// #1859
   80d14:	d2808826 	mov	x6, #0x441                 	// #1089
   80d18:	f9402122 	ldr	x2, [x9, #64]
   80d1c:	d2806004 	mov	x4, #0x300                 	// #768
   80d20:	f9401ca5 	ldr	x5, [x5, #56]
   80d24:	d2800020 	mov	x0, #0x1                   	// #1
   80d28:	91400847 	add	x7, x2, #0x2, lsl #12
   80d2c:	91400c43 	add	x3, x2, #0x3, lsl #12
   80d30:	aa0100e7 	orr	x7, x7, x1
   80d34:	aa010061 	orr	x1, x3, x1
   80d38:	f9000047 	str	x7, [x2]
   80d3c:	f2e00806 	movk	x6, #0x40, lsl #48
   80d40:	f9100041 	str	x1, [x2, #8192]
   80d44:	d34cfca5 	lsr	x5, x5, #12
   80d48:	d2840101 	mov	x1, #0x2008                	// #8200
   80d4c:	d2804088 	mov	x8, #0x204                 	// #516
   80d50:	8b010042 	add	x2, x2, x1
   80d54:	aa0403e7 	mov	x7, x4
   80d58:	14000003 	b	80d64 <mmu_init+0x5c>
   80d5c:	f107dc1f 	cmp	x0, #0x1f7
   80d60:	9a878104 	csel	x4, x8, x7, hi  // hi = pmore
   80d64:	91002042 	add	x2, x2, #0x8
   80d68:	aa0054c1 	orr	x1, x6, x0, lsl #21
   80d6c:	aa040021 	orr	x1, x1, x4
   80d70:	91000400 	add	x0, x0, #0x1
   80d74:	f108001f 	cmp	x0, #0x200
   80d78:	f81f8041 	stur	x1, [x2, #-8]
   80d7c:	54ffff01 	b.ne	80d5c <mmu_init+0x54>  // b.any
   80d80:	d2e00802 	mov	x2, #0x40000000000000      	// #18014398509481984
   80d84:	d2800000 	mov	x0, #0x0                   	// #0
   80d88:	d280e864 	mov	x4, #0x743                 	// #1859
   80d8c:	d2801007 	mov	x7, #0x80                  	// #128
   80d90:	aa0203e6 	mov	x6, x2
   80d94:	14000004 	b	80da4 <mmu_init+0x9c>
   80d98:	f101fc1f 	cmp	x0, #0x7f
   80d9c:	fa4080a0 	ccmp	x5, x0, #0x0, hi  // hi = pmore
   80da0:	9a8620e2 	csel	x2, x7, x6, cs  // cs = hs, nlast
   80da4:	91002063 	add	x3, x3, #0x8
   80da8:	aa003081 	orr	x1, x4, x0, lsl #12
   80dac:	aa020021 	orr	x1, x1, x2
   80db0:	91000400 	add	x0, x0, #0x1
   80db4:	f108001f 	cmp	x0, #0x200
   80db8:	f81f8061 	stur	x1, [x3, #-8]
   80dbc:	54fffee1 	b.ne	80d98 <mmu_init+0x90>  // b.any
   80dc0:	f9402120 	ldr	x0, [x9, #64]
   80dc4:	d282c0e4 	mov	x4, #0x1607                	// #5639
   80dc8:	f2a7e404 	movk	x4, #0x3f20, lsl #16
   80dcc:	d280e063 	mov	x3, #0x703                 	// #1795
   80dd0:	91401002 	add	x2, x0, #0x4, lsl #12
   80dd4:	91401401 	add	x1, x0, #0x5, lsl #12
   80dd8:	f2e00804 	movk	x4, #0x40, lsl #48
   80ddc:	aa030042 	orr	x2, x2, x3
   80de0:	aa030021 	orr	x1, x1, x3
   80de4:	f90ffc02 	str	x2, [x0, #8184]
   80de8:	f927fc01 	str	x1, [x0, #20472]
   80dec:	f9280004 	str	x4, [x0, #20480]
   80df0:	d5380701 	mrs	x1, id_aa64mmfr0_el1
   80df4:	92400c22 	and	x2, x1, #0xf
   80df8:	f2648c3f 	tst	x1, #0xfffffffff0000000
   80dfc:	fa400844 	ccmp	x2, #0x0, #0x4, eq  // eq = none
   80e00:	54000081 	b.ne	80e10 <mmu_init+0x108>  // b.any
   80e04:	b0000000 	adrp	x0, 81000 <uart_init+0xf0>
   80e08:	9127a000 	add	x0, x0, #0x9e8
   80e0c:	1400009b 	b	81078 <uart_puts>
   80e10:	d2809fe1 	mov	x1, #0x4ff                 	// #1279
   80e14:	f2a00881 	movk	x1, #0x44, lsl #16
   80e18:	d518a201 	msr	mair_el1, x1
   80e1c:	d286a321 	mov	x1, #0x3519                	// #13593
   80e20:	f2b6a321 	movk	x1, #0xb519, lsl #16
   80e24:	aa028022 	orr	x2, x1, x2, lsl #32
   80e28:	d5182042 	msr	tcr_el1, x2
   80e2c:	d5033fdf 	isb
   80e30:	91000400 	add	x0, x0, #0x1
   80e34:	d5182000 	msr	ttbr0_el1, x0
   80e38:	91400400 	add	x0, x0, #0x1, lsl #12
   80e3c:	d5182020 	msr	ttbr1_el1, x0
   80e40:	d5033b9f 	dsb	ish
   80e44:	d5033fdf 	isb
   80e48:	d5381000 	mrs	x0, sctlr_el1
   80e4c:	928203c1 	mov	x1, #0xffffffffffffefe1    	// #-4127
   80e50:	f2bf9ee1 	movk	x1, #0xfcf7, lsl #16
   80e54:	8a010000 	and	x0, x0, x1
   80e58:	d2810021 	mov	x1, #0x801                 	// #2049
   80e5c:	f2a01801 	movk	x1, #0xc0, lsl #16
   80e60:	aa010000 	orr	x0, x0, x1
   80e64:	d5181000 	msr	sctlr_el1, x0
   80e68:	d5033fdf 	isb
   80e6c:	d65f03c0 	ret

0000000000080e70 <wait_cycles>:
   80e70:	340000c0 	cbz	w0, 80e88 <wait_cycles+0x18>
   80e74:	51000400 	sub	w0, w0, #0x1
   80e78:	d503201f 	nop
   80e7c:	51000400 	sub	w0, w0, #0x1
   80e80:	3100041f 	cmn	w0, #0x1
   80e84:	54ffffa1 	b.ne	80e78 <wait_cycles+0x8>  // b.any
   80e88:	d65f03c0 	ret
   80e8c:	d503201f 	nop

0000000000080e90 <wait_usec>:
   80e90:	d53be001 	mrs	x1, cntfrq_el0
   80e94:	d53be024 	mrs	x4, cntpct_el0
   80e98:	d29ef9e3 	mov	x3, #0xf7cf                	// #63439
   80e9c:	d343fc21 	lsr	x1, x1, #3
   80ea0:	f2bc6a63 	movk	x3, #0xe353, lsl #16
   80ea4:	2a0003e2 	mov	w2, w0
   80ea8:	f2d374a3 	movk	x3, #0x9ba5, lsl #32
   80eac:	f2e41883 	movk	x3, #0x20c4, lsl #48
   80eb0:	9bc37c20 	umulh	x0, x1, x3
   80eb4:	d344fc00 	lsr	x0, x0, #4
   80eb8:	9b027c00 	mul	x0, x0, x2
   80ebc:	d343fc00 	lsr	x0, x0, #3
   80ec0:	9bc37c00 	umulh	x0, x0, x3
   80ec4:	8b401080 	add	x0, x4, x0, lsr #4
   80ec8:	d53be021 	mrs	x1, cntpct_el0
   80ecc:	eb01001f 	cmp	x0, x1
   80ed0:	54ffffc8 	b.hi	80ec8 <wait_usec+0x38>  // b.pmore
   80ed4:	d65f03c0 	ret

0000000000080ed8 <time_usec>:
   80ed8:	d2860102 	mov	x2, #0x3008                	// #12296
   80edc:	d2860083 	mov	x3, #0x3004                	// #12292
   80ee0:	f2a7e002 	movk	x2, #0x3f00, lsl #16
   80ee4:	f2a7e003 	movk	x3, #0x3f00, lsl #16
   80ee8:	b9400040 	ldr	w0, [x2]
   80eec:	b9400061 	ldr	w1, [x3]
   80ef0:	b9400044 	ldr	w4, [x2]
   80ef4:	6b00009f 	cmp	w4, w0
   80ef8:	54000060 	b.eq	80f04 <time_usec+0x2c>  // b.none
   80efc:	b9400040 	ldr	w0, [x2]
   80f00:	b9400061 	ldr	w1, [x3]
   80f04:	2a0103e1 	mov	w1, w1
   80f08:	aa008020 	orr	x0, x1, x0, lsl #32
   80f0c:	d65f03c0 	ret

0000000000080f10 <uart_init>:
   80f10:	a9bf7bfd 	stp	x29, x30, [sp, #-16]!
   80f14:	d0000001 	adrp	x1, 82000 <DATE>
   80f18:	d2820600 	mov	x0, #0x1030                	// #4144
   80f1c:	52800407 	mov	w7, #0x20                  	// #32
   80f20:	910003fd 	mov	x29, sp
   80f24:	f9400821 	ldr	x1, [x1, #16]
   80f28:	f2a7e400 	movk	x0, #0x3f20, lsl #16
   80f2c:	52900046 	mov	w6, #0x8002                	// #32770
   80f30:	52800185 	mov	w5, #0xc                   	// #12
   80f34:	b900001f 	str	wzr, [x0]
   80f38:	72a00066 	movk	w6, #0x3, lsl #16
   80f3c:	52800102 	mov	w2, #0x8                   	// #8
   80f40:	52812003 	mov	w3, #0x900                 	// #2304
   80f44:	b9000027 	str	w7, [x1]
   80f48:	52800044 	mov	w4, #0x2                   	// #2
   80f4c:	b900043f 	str	wzr, [x1, #4]
   80f50:	72a007a3 	movk	w3, #0x3d, lsl #16
   80f54:	b9000826 	str	w6, [x1, #8]
   80f58:	2a0203e0 	mov	w0, w2
   80f5c:	b9000c25 	str	w5, [x1, #12]
   80f60:	b9001022 	str	w2, [x1, #16]
   80f64:	b9001424 	str	w4, [x1, #20]
   80f68:	b9001823 	str	w3, [x1, #24]
   80f6c:	b9001c3f 	str	wzr, [x1, #28]
   80f70:	97ffff4a 	bl	80c98 <mbox_call>
   80f74:	d2800082 	mov	x2, #0x4                   	// #4
   80f78:	d2801283 	mov	x3, #0x94                  	// #148
   80f7c:	f2a7e402 	movk	x2, #0x3f20, lsl #16
   80f80:	f2a7e403 	movk	x3, #0x3f20, lsl #16
   80f84:	52880004 	mov	w4, #0x4000                	// #16384
   80f88:	528012c0 	mov	w0, #0x96                  	// #150
   80f8c:	b9400041 	ldr	w1, [x2]
   80f90:	72a00044 	movk	w4, #0x2, lsl #16
   80f94:	120e6421 	and	w1, w1, #0xfffc0fff
   80f98:	2a040021 	orr	w1, w1, w4
   80f9c:	b9000041 	str	w1, [x2]
   80fa0:	b900007f 	str	wzr, [x3]
   80fa4:	d503201f 	nop
   80fa8:	d503201f 	nop
   80fac:	71000400 	subs	w0, w0, #0x1
   80fb0:	54ffffc1 	b.ne	80fa8 <uart_init+0x98>  // b.any
   80fb4:	d2801301 	mov	x1, #0x98                  	// #152
   80fb8:	52980002 	mov	w2, #0xc000                	// #49152
   80fbc:	f2a7e401 	movk	x1, #0x3f20, lsl #16
   80fc0:	528012c0 	mov	w0, #0x96                  	// #150
   80fc4:	b9000022 	str	w2, [x1]
   80fc8:	d503201f 	nop
   80fcc:	71000400 	subs	w0, w0, #0x1
   80fd0:	54ffffc1 	b.ne	80fc8 <uart_init+0xb8>  // b.any
   80fd4:	d2801302 	mov	x2, #0x98                  	// #152
   80fd8:	d2820881 	mov	x1, #0x1044                	// #4164
   80fdc:	f2a7e402 	movk	x2, #0x3f20, lsl #16
   80fe0:	f2a7e401 	movk	x1, #0x3f20, lsl #16
   80fe4:	d2820480 	mov	x0, #0x1024                	// #4132
   80fe8:	5280ffe3 	mov	w3, #0x7ff                 	// #2047
   80fec:	b900005f 	str	wzr, [x2]
   80ff0:	f2a7e400 	movk	x0, #0x3f20, lsl #16
   80ff4:	b9000023 	str	w3, [x1]
   80ff8:	d2820581 	mov	x1, #0x102c                	// #4140
   80ffc:	52800043 	mov	w3, #0x2                   	// #2
   81000:	f2a7e401 	movk	x1, #0x3f20, lsl #16
   81004:	b9000003 	str	w3, [x0]
   81008:	52800163 	mov	w3, #0xb                   	// #11
   8100c:	b90f9043 	str	w3, [x2, #3984]
   81010:	52800c02 	mov	w2, #0x60                  	// #96
   81014:	b9000022 	str	w2, [x1]
   81018:	52806021 	mov	w1, #0x301                 	// #769
   8101c:	b9000c01 	str	w1, [x0, #12]
   81020:	a8c17bfd 	ldp	x29, x30, [sp], #16
   81024:	d65f03c0 	ret

0000000000081028 <uart_send>:
   81028:	d2820302 	mov	x2, #0x1018                	// #4120
   8102c:	f2a7e402 	movk	x2, #0x3f20, lsl #16
   81030:	d503201f 	nop
   81034:	b9400041 	ldr	w1, [x2]
   81038:	372fffc1 	tbnz	w1, #5, 81030 <uart_send+0x8>
   8103c:	d2820001 	mov	x1, #0x1000                	// #4096
   81040:	f2a7e401 	movk	x1, #0x3f20, lsl #16
   81044:	b9000020 	str	w0, [x1]
   81048:	d65f03c0 	ret
   8104c:	d503201f 	nop

0000000000081050 <uart_getc>:
   81050:	d2820301 	mov	x1, #0x1018                	// #4120
   81054:	f2a7e401 	movk	x1, #0x3f20, lsl #16
   81058:	d503201f 	nop
   8105c:	b9400020 	ldr	w0, [x1]
   81060:	3727ffc0 	tbnz	w0, #4, 81058 <uart_getc+0x8>
   81064:	d2820000 	mov	x0, #0x1000                	// #4096
   81068:	f2a7e400 	movk	x0, #0x3f20, lsl #16
   8106c:	b9400000 	ldr	w0, [x0]
   81070:	d65f03c0 	ret
   81074:	d503201f 	nop

0000000000081078 <uart_puts>:
   81078:	39400003 	ldrb	w3, [x0]
   8107c:	340001a3 	cbz	w3, 810b0 <uart_puts+0x38>
   81080:	d2820302 	mov	x2, #0x1018                	// #4120
   81084:	d2820004 	mov	x4, #0x1000                	// #4096
   81088:	f2a7e402 	movk	x2, #0x3f20, lsl #16
   8108c:	f2a7e404 	movk	x4, #0x3f20, lsl #16
   81090:	91000400 	add	x0, x0, #0x1
   81094:	d503201f 	nop
   81098:	d503201f 	nop
   8109c:	b9400041 	ldr	w1, [x2]
   810a0:	372fffc1 	tbnz	w1, #5, 81098 <uart_puts+0x20>
   810a4:	b9000083 	str	w3, [x4]
   810a8:	39400003 	ldrb	w3, [x0]
   810ac:	35ffff23 	cbnz	w3, 81090 <uart_puts+0x18>
   810b0:	d65f03c0 	ret
   810b4:	d503201f 	nop

00000000000810b8 <uart_hex>:
   810b8:	d2820302 	mov	x2, #0x1018                	// #4120
   810bc:	d2820005 	mov	x5, #0x1000                	// #4096
   810c0:	52800383 	mov	w3, #0x1c                  	// #28
   810c4:	528006e7 	mov	w7, #0x37                  	// #55
   810c8:	52800606 	mov	w6, #0x30                  	// #48
   810cc:	f2a7e402 	movk	x2, #0x3f20, lsl #16
   810d0:	f2a7e405 	movk	x5, #0x3f20, lsl #16
   810d4:	d503201f 	nop
   810d8:	1ac32401 	lsr	w1, w0, w3
   810dc:	12000c21 	and	w1, w1, #0xf
   810e0:	7100243f 	cmp	w1, #0x9
   810e4:	1a8680e4 	csel	w4, w7, w6, hi  // hi = pmore
   810e8:	0b010084 	add	w4, w4, w1
   810ec:	d503201f 	nop
   810f0:	d503201f 	nop
   810f4:	b9400041 	ldr	w1, [x2]
   810f8:	372fffc1 	tbnz	w1, #5, 810f0 <uart_hex+0x38>
   810fc:	b90000a4 	str	w4, [x5]
   81100:	51001063 	sub	w3, w3, #0x4
   81104:	3100107f 	cmn	w3, #0x4
   81108:	54fffe81 	b.ne	810d8 <uart_hex+0x20>  // b.any
   8110c:	d65f03c0 	ret

0000000000081110 <framebuffer_init>:
   81110:	a9be7bfd 	stp	x29, x30, [sp, #-32]!
   81114:	52801185 	mov	w5, #0x8c                  	// #140
   81118:	52900060 	mov	w0, #0x8003                	// #32771
   8111c:	52800102 	mov	w2, #0x8                   	// #8
   81120:	910003fd 	mov	x29, sp
   81124:	f9000bf3 	str	x19, [sp, #16]
   81128:	b0000013 	adrp	x19, 82000 <DATE>
   8112c:	72a00080 	movk	w0, #0x4, lsl #16
   81130:	5280a004 	mov	w4, #0x500                 	// #1280
   81134:	f9400a61 	ldr	x1, [x19, #16]
   81138:	52805a0e 	mov	w14, #0x2d0                 	// #720
   8113c:	5290008d 	mov	w13, #0x8004                	// #32772
   81140:	5280b40c 	mov	w12, #0x5a0                 	// #1440
   81144:	72a0008d 	movk	w13, #0x4, lsl #16
   81148:	5290012b 	mov	w11, #0x8009                	// #32777
   8114c:	72a0008b 	movk	w11, #0x4, lsl #16
   81150:	529000aa 	mov	w10, #0x8005                	// #32773
   81154:	b9000025 	str	w5, [x1]
   81158:	72a0008a 	movk	w10, #0x4, lsl #16
   8115c:	b900043f 	str	wzr, [x1, #4]
   81160:	52800083 	mov	w3, #0x4                   	// #4
   81164:	b9000820 	str	w0, [x1, #8]
   81168:	52800409 	mov	w9, #0x20                  	// #32
   8116c:	b9000c22 	str	w2, [x1, #12]
   81170:	529000c8 	mov	w8, #0x8006                	// #32774
   81174:	b9001022 	str	w2, [x1, #16]
   81178:	72a00088 	movk	w8, #0x4, lsl #16
   8117c:	b9001424 	str	w4, [x1, #20]
   81180:	52800027 	mov	w7, #0x1                   	// #1
   81184:	b900182e 	str	w14, [x1, #24]
   81188:	72a00087 	movk	w7, #0x4, lsl #16
   8118c:	b9001c2d 	str	w13, [x1, #28]
   81190:	52820006 	mov	w6, #0x1000                	// #4096
   81194:	b9002022 	str	w2, [x1, #32]
   81198:	52800105 	mov	w5, #0x8                   	// #8
   8119c:	b9002422 	str	w2, [x1, #36]
   811a0:	72a00085 	movk	w5, #0x4, lsl #16
   811a4:	b9002824 	str	w4, [x1, #40]
   811a8:	2a0203e0 	mov	w0, w2
   811ac:	b9002c2c 	str	w12, [x1, #44]
   811b0:	b900302b 	str	w11, [x1, #48]
   811b4:	b9003422 	str	w2, [x1, #52]
   811b8:	b9003822 	str	w2, [x1, #56]
   811bc:	b9003c3f 	str	wzr, [x1, #60]
   811c0:	b900403f 	str	wzr, [x1, #64]
   811c4:	b900442a 	str	w10, [x1, #68]
   811c8:	b9004823 	str	w3, [x1, #72]
   811cc:	b9004c23 	str	w3, [x1, #76]
   811d0:	b9005029 	str	w9, [x1, #80]
   811d4:	b9005428 	str	w8, [x1, #84]
   811d8:	b9005823 	str	w3, [x1, #88]
   811dc:	b9005c23 	str	w3, [x1, #92]
   811e0:	b900603f 	str	wzr, [x1, #96]
   811e4:	b9006427 	str	w7, [x1, #100]
   811e8:	b9006822 	str	w2, [x1, #104]
   811ec:	b9006c22 	str	w2, [x1, #108]
   811f0:	b9007026 	str	w6, [x1, #112]
   811f4:	b900743f 	str	wzr, [x1, #116]
   811f8:	b9007825 	str	w5, [x1, #120]
   811fc:	b9007c23 	str	w3, [x1, #124]
   81200:	b9008023 	str	w3, [x1, #128]
   81204:	b900843f 	str	wzr, [x1, #132]
   81208:	b900883f 	str	wzr, [x1, #136]
   8120c:	97fffea3 	bl	80c98 <mbox_call>
   81210:	340004a0 	cbz	w0, 812a4 <framebuffer_init+0x194>
   81214:	f9400a60 	ldr	x0, [x19, #16]
   81218:	b9405000 	ldr	w0, [x0, #80]
   8121c:	7100801f 	cmp	w0, #0x20
   81220:	54000040 	b.eq	81228 <framebuffer_init+0x118>  // b.none
   81224:	940001ef 	bl	819e0 <abort>
   81228:	f9400a60 	ldr	x0, [x19, #16]
   8122c:	b9407000 	ldr	w0, [x0, #112]
   81230:	35000040 	cbnz	w0, 81238 <framebuffer_init+0x128>
   81234:	940001eb 	bl	819e0 <abort>
   81238:	f9400a60 	ldr	x0, [x19, #16]
   8123c:	b0000005 	adrp	x5, 82000 <DATE>
   81240:	b0000004 	adrp	x4, 82000 <DATE>
   81244:	b0000003 	adrp	x3, 82000 <DATE>
   81248:	b0000002 	adrp	x2, 82000 <DATE>
   8124c:	b0000001 	adrp	x1, 82000 <DATE>
   81250:	f9400bf3 	ldr	x19, [sp, #16]
   81254:	b9407006 	ldr	w6, [x0, #112]
   81258:	f94030a5 	ldr	x5, [x5, #96]
   8125c:	120074c6 	and	w6, w6, #0x3fffffff
   81260:	b9007006 	str	w6, [x0, #112]
   81264:	f9402c84 	ldr	x4, [x4, #88]
   81268:	f9402463 	ldr	x3, [x3, #72]
   8126c:	f9401842 	ldr	x2, [x2, #48]
   81270:	f9402821 	ldr	x1, [x1, #80]
   81274:	b9401408 	ldr	w8, [x0, #20]
   81278:	b9401807 	ldr	w7, [x0, #24]
   8127c:	b9408406 	ldr	w6, [x0, #132]
   81280:	b9407000 	ldr	w0, [x0, #112]
   81284:	b9000066 	str	w6, [x3]
   81288:	b9000087 	str	w7, [x4]
   8128c:	2a0003e0 	mov	w0, w0
   81290:	b90000a8 	str	w8, [x5]
   81294:	f9000020 	str	x0, [x1]
   81298:	f9000040 	str	x0, [x2]
   8129c:	a8c27bfd 	ldp	x29, x30, [sp], #32
   812a0:	d65f03c0 	ret
   812a4:	940001cf 	bl	819e0 <abort>
   812a8:	17ffffdb 	b	81214 <framebuffer_init+0x104>
   812ac:	d503201f 	nop

00000000000812b0 <framebuffer_clear>:
   812b0:	b0000006 	adrp	x6, 82000 <DATE>
   812b4:	f9402cc6 	ldr	x6, [x6, #88]
   812b8:	b94000c0 	ldr	w0, [x6]
   812bc:	34000380 	cbz	w0, 8132c <framebuffer_clear+0x7c>
   812c0:	b0000000 	adrp	x0, 82000 <DATE>
   812c4:	b0000007 	adrp	x7, 82000 <DATE>
   812c8:	b0000008 	adrp	x8, 82000 <DATE>
   812cc:	52814603 	mov	w3, #0xa30                 	// #2608
   812d0:	f9402800 	ldr	x0, [x0, #80]
   812d4:	52800005 	mov	w5, #0x0                   	// #0
   812d8:	f94030e7 	ldr	x7, [x7, #96]
   812dc:	72bfe483 	movk	w3, #0xff24, lsl #16
   812e0:	f9402508 	ldr	x8, [x8, #72]
   812e4:	aa0703e4 	mov	x4, x7
   812e8:	f9400009 	ldr	x9, [x0]
   812ec:	d503201f 	nop
   812f0:	b9400101 	ldr	w1, [x8]
   812f4:	b94000e0 	ldr	w0, [x7]
   812f8:	1b017ca1 	mul	w1, w5, w1
   812fc:	8b010121 	add	x1, x9, x1
   81300:	340000e0 	cbz	w0, 8131c <framebuffer_clear+0x6c>
   81304:	52800000 	mov	w0, #0x0                   	// #0
   81308:	b8004423 	str	w3, [x1], #4
   8130c:	11000400 	add	w0, w0, #0x1
   81310:	b9400082 	ldr	w2, [x4]
   81314:	6b02001f 	cmp	w0, w2
   81318:	54ffff83 	b.cc	81308 <framebuffer_clear+0x58>  // b.lo, b.ul, b.last
   8131c:	b94000c0 	ldr	w0, [x6]
   81320:	110004a5 	add	w5, w5, #0x1
   81324:	6b0000bf 	cmp	w5, w0
   81328:	54fffe43 	b.cc	812f0 <framebuffer_clear+0x40>  // b.lo, b.ul, b.last
   8132c:	d65f03c0 	ret

0000000000081330 <framebuffer_draw>:
   81330:	b0000002 	adrp	x2, 82000 <DATE>
   81334:	b0000003 	adrp	x3, 82000 <DATE>
   81338:	531e7400 	lsl	w0, w0, #2
   8133c:	52800004 	mov	w4, #0x0                   	// #0
   81340:	f9402442 	ldr	x2, [x2, #72]
   81344:	f9402865 	ldr	x5, [x3, #80]
   81348:	32089fe3 	mov	w3, #0xff00ff00            	// #-16711936
   8134c:	aa0203e7 	mov	x7, x2
   81350:	b9400042 	ldr	w2, [x2]
   81354:	f94000a6 	ldr	x6, [x5]
   81358:	1b027c21 	mul	w1, w1, w2
   8135c:	8b20c025 	add	x5, x1, w0, sxtw
   81360:	1b027c80 	mul	w0, w4, w2
   81364:	8b050000 	add	x0, x0, x5
   81368:	8b0000c0 	add	x0, x6, x0
   8136c:	91064001 	add	x1, x0, #0x190
   81370:	b8004403 	str	w3, [x0], #4
   81374:	eb00003f 	cmp	x1, x0
   81378:	54ffffc1 	b.ne	81370 <framebuffer_draw+0x40>  // b.any
   8137c:	11000484 	add	w4, w4, #0x1
   81380:	7101909f 	cmp	w4, #0x64
   81384:	54000060 	b.eq	81390 <framebuffer_draw+0x60>  // b.none
   81388:	b94000e2 	ldr	w2, [x7]
   8138c:	17fffff5 	b	81360 <framebuffer_draw+0x30>
   81390:	d65f03c0 	ret
   81394:	d503201f 	nop

0000000000081398 <framebuffer_text>:
   81398:	39400043 	ldrb	w3, [x2]
   8139c:	34000503 	cbz	w3, 8143c <framebuffer_text+0xa4>
   813a0:	b0000004 	adrp	x4, 82000 <DATE>
   813a4:	b000000c 	adrp	x12, 82000 <DATE>
   813a8:	b000000d 	adrp	x13, 82000 <DATE>
   813ac:	531e7400 	lsl	w0, w0, #2
   813b0:	f9402884 	ldr	x4, [x4, #80]
   813b4:	529e1e07 	mov	w7, #0xf0f0                	// #61680
   813b8:	f940258c 	ldr	x12, [x12, #72]
   813bc:	93407c0b 	sxtw	x11, w0
   813c0:	f94011ad 	ldr	x13, [x13, #32]
   813c4:	72bffe07 	movk	w7, #0xfff0, lsl #16
   813c8:	aa0c03ea 	mov	x10, x12
   813cc:	f9400089 	ldr	x9, [x4]
   813d0:	b9400180 	ldr	w0, [x12]
   813d4:	51008066 	sub	w6, w3, #0x20
   813d8:	d2800005 	mov	x5, #0x0                   	// #0
   813dc:	531d70c6 	lsl	w6, w6, #3
   813e0:	1b017c08 	mul	w8, w0, w1
   813e4:	8b26c1a6 	add	x6, x13, w6, sxtw
   813e8:	8b0b0108 	add	x8, x8, x11
   813ec:	d503201f 	nop
   813f0:	1b057c04 	mul	w4, w0, w5
   813f4:	52800100 	mov	w0, #0x8                   	// #8
   813f8:	8b080084 	add	x4, x4, x8
   813fc:	8b040124 	add	x4, x9, x4
   81400:	386568c3 	ldrb	w3, [x6, x5]
   81404:	1ac02863 	asr	w3, w3, w0
   81408:	36000043 	tbz	w3, #0, 81410 <framebuffer_text+0x78>
   8140c:	b9000087 	str	w7, [x4]
   81410:	91001084 	add	x4, x4, #0x4
   81414:	71000400 	subs	w0, w0, #0x1
   81418:	54ffff41 	b.ne	81400 <framebuffer_text+0x68>  // b.any
   8141c:	910004a5 	add	x5, x5, #0x1
   81420:	f10020bf 	cmp	x5, #0x8
   81424:	54000060 	b.eq	81430 <framebuffer_text+0x98>  // b.none
   81428:	b9400140 	ldr	w0, [x10]
   8142c:	17fffff1 	b	813f0 <framebuffer_text+0x58>
   81430:	38401c43 	ldrb	w3, [x2, #1]!
   81434:	9100816b 	add	x11, x11, #0x20
   81438:	35fffcc3 	cbnz	w3, 813d0 <framebuffer_text+0x38>
   8143c:	d65f03c0 	ret

0000000000081440 <framebuffer_swap>:
   81440:	a9bf7bfd 	stp	x29, x30, [sp, #-16]!
   81444:	b0000002 	adrp	x2, 82000 <DATE>
   81448:	b0000000 	adrp	x0, 82000 <DATE>
   8144c:	b0000001 	adrp	x1, 82000 <DATE>
   81450:	910003fd 	mov	x29, sp
   81454:	f9401842 	ldr	x2, [x2, #48]
   81458:	f9402800 	ldr	x0, [x0, #80]
   8145c:	f9402c21 	ldr	x1, [x1, #88]
   81460:	f9400043 	ldr	x3, [x2]
   81464:	f9400002 	ldr	x2, [x0]
   81468:	b9400024 	ldr	w4, [x1]
   8146c:	eb03005f 	cmp	x2, x3
   81470:	540002e0 	b.eq	814cc <framebuffer_swap+0x8c>  // b.none
   81474:	f9000003 	str	x3, [x0]
   81478:	b0000001 	adrp	x1, 82000 <DATE>
   8147c:	52800405 	mov	w5, #0x20                  	// #32
   81480:	52900123 	mov	w3, #0x8009                	// #32777
   81484:	52800102 	mov	w2, #0x8                   	// #8
   81488:	f9400821 	ldr	x1, [x1, #16]
   8148c:	72a00083 	movk	w3, #0x4, lsl #16
   81490:	2a0203e0 	mov	w0, w2
   81494:	b9000025 	str	w5, [x1]
   81498:	b900043f 	str	wzr, [x1, #4]
   8149c:	b9000823 	str	w3, [x1, #8]
   814a0:	b9000c22 	str	w2, [x1, #12]
   814a4:	b9001022 	str	w2, [x1, #16]
   814a8:	b900143f 	str	wzr, [x1, #20]
   814ac:	b9001824 	str	w4, [x1, #24]
   814b0:	b9001c3f 	str	wzr, [x1, #28]
   814b4:	97fffdf9 	bl	80c98 <mbox_call>
   814b8:	34000060 	cbz	w0, 814c4 <framebuffer_swap+0x84>
   814bc:	a8c17bfd 	ldp	x29, x30, [sp], #16
   814c0:	d65f03c0 	ret
   814c4:	a8c17bfd 	ldp	x29, x30, [sp], #16
   814c8:	14000146 	b	819e0 <abort>
   814cc:	b0000001 	adrp	x1, 82000 <DATE>
   814d0:	f9402421 	ldr	x1, [x1, #72]
   814d4:	b9400021 	ldr	w1, [x1]
   814d8:	1b017c81 	mul	w1, w4, w1
   814dc:	52800004 	mov	w4, #0x0                   	// #0
   814e0:	8b010042 	add	x2, x2, x1
   814e4:	f9000002 	str	x2, [x0]
   814e8:	17ffffe4 	b	81478 <framebuffer_swap+0x38>
   814ec:	00000000 	.inst	0x00000000 ; undefined

00000000000814f0 <i32_to_string>:
   814f0:	528cccea 	mov	w10, #0x6667                	// #26215
   814f4:	aa0003e6 	mov	x6, x0
   814f8:	aa0003e8 	mov	x8, x0
   814fc:	d2800007 	mov	x7, #0x0                   	// #0
   81500:	72acccca 	movk	w10, #0x6666, lsl #16
   81504:	14000002 	b	8150c <i32_to_string+0x1c>
   81508:	93407ca7 	sxtw	x7, w5
   8150c:	9b2a7c44 	smull	x4, w2, w10
   81510:	110004e5 	add	w5, w7, #0x1
   81514:	9362fc84 	asr	x4, x4, #34
   81518:	4b827c84 	sub	w4, w4, w2, asr #31
   8151c:	7100009f 	cmp	w4, #0x0
   81520:	0b040883 	add	w3, w4, w4, lsl #2
   81524:	1a9f07e9 	cset	w9, ne  // ne = any
   81528:	6b0100bf 	cmp	w5, w1
   8152c:	4b030443 	sub	w3, w2, w3, lsl #1
   81530:	2a0403e2 	mov	w2, w4
   81534:	1100c063 	add	w3, w3, #0x30
   81538:	1a9fa7e4 	cset	w4, lt  // lt = tstop
   8153c:	12001c63 	and	w3, w3, #0xff
   81540:	38001503 	strb	w3, [x8], #1
   81544:	6a04013f 	tst	w9, w4
   81548:	54fffe01 	b.ne	81508 <i32_to_string+0x18>  // b.any
   8154c:	13017ca5 	asr	w5, w5, #1
   81550:	340001a5 	cbz	w5, 81584 <i32_to_string+0x94>
   81554:	510004a5 	sub	w5, w5, #0x1
   81558:	d1000402 	sub	x2, x0, #0x1
   8155c:	cb0500e1 	sub	x1, x7, x5
   81560:	8b070000 	add	x0, x0, x7
   81564:	8b020021 	add	x1, x1, x2
   81568:	14000002 	b	81570 <i32_to_string+0x80>
   8156c:	39400003 	ldrb	w3, [x0]
   81570:	394000c2 	ldrb	w2, [x6]
   81574:	380014c3 	strb	w3, [x6], #1
   81578:	381ff402 	strb	w2, [x0], #-1
   8157c:	eb01001f 	cmp	x0, x1
   81580:	54ffff61 	b.ne	8156c <i32_to_string+0x7c>  // b.any
   81584:	d65f03c0 	ret

0000000000081588 <main>:
   81588:	a9b27bfd 	stp	x29, x30, [sp, #-224]!
   8158c:	910003fd 	mov	x29, sp
   81590:	a90153f3 	stp	x19, x20, [sp, #16]
   81594:	52800c93 	mov	w19, #0x64                  	// #100
   81598:	a9025bf5 	stp	x21, x22, [sp, #32]
   8159c:	2a1303f4 	mov	w20, w19
   815a0:	a90363f7 	stp	x23, x24, [sp, #48]
   815a4:	910183b6 	add	x22, x29, #0x60
   815a8:	a9046bf9 	stp	x25, x26, [sp, #64]
   815ac:	b000001a 	adrp	x26, 82000 <DATE>
   815b0:	a90573fb 	stp	x27, x28, [sp, #80]
   815b4:	97fffe57 	bl	80f10 <uart_init>
   815b8:	90000000 	adrp	x0, 81000 <uart_init+0xf0>
   815bc:	91348000 	add	x0, x0, #0xd20
   815c0:	97fffeae 	bl	81078 <uart_puts>
   815c4:	5289ba7b 	mov	w27, #0x4dd3                	// #19923
   815c8:	f9400340 	ldr	x0, [x26]
   815cc:	52800037 	mov	w23, #0x1                   	// #1
   815d0:	90000019 	adrp	x25, 81000 <uart_init+0xf0>
   815d4:	2a1703f8 	mov	w24, w23
   815d8:	52800015 	mov	w21, #0x0                   	// #0
   815dc:	72a20c5b 	movk	w27, #0x1062, lsl #16
   815e0:	91352339 	add	x25, x25, #0xd48
   815e4:	97fffcf5 	bl	809b8 <reload_initial>
   815e8:	97fffeca 	bl	81110 <framebuffer_init>
   815ec:	90000000 	adrp	x0, 81000 <uart_init+0xf0>
   815f0:	9134c000 	add	x0, x0, #0xd30
   815f4:	97fffea1 	bl	81078 <uart_puts>
   815f8:	1400002e 	b	816b0 <main+0x128>
   815fc:	71018e9f 	cmp	w20, #0x63
   81600:	5400006c 	b.gt	8160c <main+0x84>
   81604:	52800038 	mov	w24, #0x1                   	// #1
   81608:	52800c94 	mov	w20, #0x64                  	// #100
   8160c:	7103227f 	cmp	w19, #0xc8
   81610:	5400064c 	b.gt	816d8 <main+0x150>
   81614:	71018e7f 	cmp	w19, #0x63
   81618:	5400006c 	b.gt	81624 <main+0x9c>
   8161c:	52800037 	mov	w23, #0x1                   	// #1
   81620:	52800c93 	mov	w19, #0x64                  	// #100
   81624:	97ffff23 	bl	812b0 <framebuffer_clear>
   81628:	2a1303e1 	mov	w1, w19
   8162c:	2a1403e0 	mov	w0, w20
   81630:	97ffff40 	bl	81330 <framebuffer_draw>
   81634:	aa1903e2 	mov	x2, x25
   81638:	52803201 	mov	w1, #0x190                 	// #400
   8163c:	52800c80 	mov	w0, #0x64                  	// #100
   81640:	97ffff56 	bl	81398 <framebuffer_text>
   81644:	9b3b7ea2 	smull	x2, w21, w27
   81648:	aa1603e0 	mov	x0, x22
   8164c:	52801001 	mov	w1, #0x80                  	// #128
   81650:	a9067fbf 	stp	xzr, xzr, [x29, #96]
   81654:	a9077fbf 	stp	xzr, xzr, [x29, #112]
   81658:	9366fc42 	asr	x2, x2, #38
   8165c:	a9087fbf 	stp	xzr, xzr, [x29, #128]
   81660:	4b957c42 	sub	w2, w2, w21, asr #31
   81664:	a9097fbf 	stp	xzr, xzr, [x29, #144]
   81668:	a90a7fbf 	stp	xzr, xzr, [x29, #160]
   8166c:	a90b7fbf 	stp	xzr, xzr, [x29, #176]
   81670:	a90c7fbf 	stp	xzr, xzr, [x29, #192]
   81674:	a90d7fbf 	stp	xzr, xzr, [x29, #208]
   81678:	97ffff9e 	bl	814f0 <i32_to_string>
   8167c:	aa1603e2 	mov	x2, x22
   81680:	528001c1 	mov	w1, #0xe                   	// #14
   81684:	52800180 	mov	w0, #0xc                   	// #12
   81688:	97ffff44 	bl	81398 <framebuffer_text>
   8168c:	aa1603e0 	mov	x0, x22
   81690:	97fffe7a 	bl	81078 <uart_puts>
   81694:	52800140 	mov	w0, #0xa                   	// #10
   81698:	97fffe64 	bl	81028 <uart_send>
   8169c:	97ffff69 	bl	81440 <framebuffer_swap>
   816a0:	97fffe0e 	bl	80ed8 <time_usec>
   816a4:	4b1c0015 	sub	w21, w0, w28
   816a8:	f9400340 	ldr	x0, [x26]
   816ac:	97fffcc3 	bl	809b8 <reload_initial>
   816b0:	97fffe0a 	bl	80ed8 <time_usec>
   816b4:	0b180294 	add	w20, w20, w24
   816b8:	aa0003fc 	mov	x28, x0
   816bc:	0b170273 	add	w19, w19, w23
   816c0:	7103229f 	cmp	w20, #0xc8
   816c4:	54fff9cd 	b.le	815fc <main+0x74>
   816c8:	52801914 	mov	w20, #0xc8                  	// #200
   816cc:	12800018 	mov	w24, #0xffffffff            	// #-1
   816d0:	7103227f 	cmp	w19, #0xc8
   816d4:	54fffa0d 	b.le	81614 <main+0x8c>
   816d8:	52801913 	mov	w19, #0xc8                  	// #200
   816dc:	12800017 	mov	w23, #0xffffffff            	// #-1
   816e0:	17ffffd1 	b	81624 <main+0x9c>
   816e4:	00000000 	.inst	0x00000000 ; undefined

00000000000816e8 <exc_handler>:
   816e8:	a9bc7bfd 	stp	x29, x30, [sp, #-64]!
   816ec:	f100041f 	cmp	x0, #0x1
   816f0:	910003fd 	mov	x29, sp
   816f4:	a90153f3 	stp	x19, x20, [sp, #16]
   816f8:	aa0103f4 	mov	x20, x1
   816fc:	a9025bf5 	stp	x21, x22, [sp, #32]
   81700:	aa0203f5 	mov	x21, x2
   81704:	f9001bf7 	str	x23, [sp, #48]
   81708:	aa0303f6 	mov	x22, x3
   8170c:	aa0403f7 	mov	x23, x4
   81710:	540014e0 	b.eq	819ac <exc_handler+0x2c4>  // b.none
   81714:	b4001440 	cbz	x0, 8199c <exc_handler+0x2b4>
   81718:	f100081f 	cmp	x0, #0x2
   8171c:	54001500 	b.eq	819bc <exc_handler+0x2d4>  // b.none
   81720:	f1000c1f 	cmp	x0, #0x3
   81724:	540000a1 	b.ne	81738 <exc_handler+0x50>  // b.any
   81728:	90000000 	adrp	x0, 81000 <uart_init+0xf0>
   8172c:	9136a000 	add	x0, x0, #0xda8
   81730:	97fffe52 	bl	81078 <uart_puts>
   81734:	d503201f 	nop
   81738:	90000000 	adrp	x0, 81000 <uart_init+0xf0>
   8173c:	d35afe93 	lsr	x19, x20, #26
   81740:	9136c000 	add	x0, x0, #0xdb0
   81744:	97fffe4d 	bl	81078 <uart_puts>
   81748:	f100867f 	cmp	x19, #0x21
   8174c:	54001200 	b.eq	8198c <exc_handler+0x2a4>  // b.none
   81750:	54000929 	b.ls	81874 <exc_handler+0x18c>  // b.plast
   81754:	f100967f 	cmp	x19, #0x25
   81758:	54000c20 	b.eq	818dc <exc_handler+0x1f4>  // b.none
   8175c:	54001088 	b.hi	8196c <exc_handler+0x284>  // b.pmore
   81760:	f1008a7f 	cmp	x19, #0x22
   81764:	54000fc0 	b.eq	8195c <exc_handler+0x274>  // b.none
   81768:	f100927f 	cmp	x19, #0x24
   8176c:	54000761 	b.ne	81858 <exc_handler+0x170>  // b.any
   81770:	90000000 	adrp	x0, 81000 <uart_init+0xf0>
   81774:	91396000 	add	x0, x0, #0xe58
   81778:	97fffe40 	bl	81078 <uart_puts>
   8177c:	90000000 	adrp	x0, 81000 <uart_init+0xf0>
   81780:	913e6000 	add	x0, x0, #0xf98
   81784:	97fffe3d 	bl	81078 <uart_puts>
   81788:	d3420e80 	ubfx	x0, x20, #2, #2
   8178c:	f100081f 	cmp	x0, #0x2
   81790:	54000be0 	b.eq	8190c <exc_handler+0x224>  // b.none
   81794:	f1000c1f 	cmp	x0, #0x3
   81798:	54000ca0 	b.eq	8192c <exc_handler+0x244>  // b.none
   8179c:	f100041f 	cmp	x0, #0x1
   817a0:	54000be0 	b.eq	8191c <exc_handler+0x234>  // b.none
   817a4:	90000000 	adrp	x0, 81000 <uart_init+0xf0>
   817a8:	913ac000 	add	x0, x0, #0xeb0
   817ac:	97fffe33 	bl	81078 <uart_puts>
   817b0:	92400680 	and	x0, x20, #0x3
   817b4:	f100081f 	cmp	x0, #0x2
   817b8:	54000ca0 	b.eq	8194c <exc_handler+0x264>  // b.none
   817bc:	f1000c1f 	cmp	x0, #0x3
   817c0:	54000be0 	b.eq	8193c <exc_handler+0x254>  // b.none
   817c4:	f100041f 	cmp	x0, #0x1
   817c8:	540009a0 	b.eq	818fc <exc_handler+0x214>  // b.none
   817cc:	90000000 	adrp	x0, 81000 <uart_init+0xf0>
   817d0:	913c4000 	add	x0, x0, #0xf10
   817d4:	97fffe29 	bl	81078 <uart_puts>
   817d8:	90000000 	adrp	x0, 81000 <uart_init+0xf0>
   817dc:	913d4000 	add	x0, x0, #0xf50
   817e0:	97fffe26 	bl	81078 <uart_puts>
   817e4:	d360fe80 	lsr	x0, x20, #32
   817e8:	97fffe34 	bl	810b8 <uart_hex>
   817ec:	2a1403e0 	mov	w0, w20
   817f0:	97fffe32 	bl	810b8 <uart_hex>
   817f4:	90000000 	adrp	x0, 81000 <uart_init+0xf0>
   817f8:	913d8000 	add	x0, x0, #0xf60
   817fc:	97fffe1f 	bl	81078 <uart_puts>
   81800:	d360fea0 	lsr	x0, x21, #32
   81804:	97fffe2d 	bl	810b8 <uart_hex>
   81808:	2a1503e0 	mov	w0, w21
   8180c:	97fffe2b 	bl	810b8 <uart_hex>
   81810:	90000000 	adrp	x0, 81000 <uart_init+0xf0>
   81814:	913dc000 	add	x0, x0, #0xf70
   81818:	97fffe18 	bl	81078 <uart_puts>
   8181c:	d360fec0 	lsr	x0, x22, #32
   81820:	97fffe26 	bl	810b8 <uart_hex>
   81824:	2a1603e0 	mov	w0, w22
   81828:	97fffe24 	bl	810b8 <uart_hex>
   8182c:	90000000 	adrp	x0, 81000 <uart_init+0xf0>
   81830:	913e0000 	add	x0, x0, #0xf80
   81834:	97fffe11 	bl	81078 <uart_puts>
   81838:	d360fee0 	lsr	x0, x23, #32
   8183c:	97fffe1f 	bl	810b8 <uart_hex>
   81840:	2a1703e0 	mov	w0, w23
   81844:	97fffe1d 	bl	810b8 <uart_hex>
   81848:	90000000 	adrp	x0, 81000 <uart_init+0xf0>
   8184c:	913e4000 	add	x0, x0, #0xf90
   81850:	97fffe0a 	bl	81078 <uart_puts>
   81854:	14000000 	b	81854 <exc_handler+0x16c>
   81858:	90000000 	adrp	x0, 81000 <uart_init+0xf0>
   8185c:	d1009273 	sub	x19, x19, #0x24
   81860:	9136e000 	add	x0, x0, #0xdb8
   81864:	97fffe05 	bl	81078 <uart_puts>
   81868:	f100067f 	cmp	x19, #0x1
   8186c:	54fffb68 	b.hi	817d8 <exc_handler+0xf0>  // b.pmore
   81870:	17ffffc3 	b	8177c <exc_handler+0x94>
   81874:	f1003a7f 	cmp	x19, #0xe
   81878:	54000220 	b.eq	818bc <exc_handler+0x1d4>  // b.none
   8187c:	54000108 	b.hi	8189c <exc_handler+0x1b4>  // b.pmore
   81880:	b4000373 	cbz	x19, 818ec <exc_handler+0x204>
   81884:	f100067f 	cmp	x19, #0x1
   81888:	54fffe81 	b.ne	81858 <exc_handler+0x170>  // b.any
   8188c:	90000000 	adrp	x0, 81000 <uart_init+0xf0>
   81890:	91370000 	add	x0, x0, #0xdc0
   81894:	97fffdf9 	bl	81078 <uart_puts>
   81898:	17ffffd0 	b	817d8 <exc_handler+0xf0>
   8189c:	f100567f 	cmp	x19, #0x15
   818a0:	54000160 	b.eq	818cc <exc_handler+0x1e4>  // b.none
   818a4:	f100827f 	cmp	x19, #0x20
   818a8:	54fffd81 	b.ne	81858 <exc_handler+0x170>  // b.any
   818ac:	90000000 	adrp	x0, 81000 <uart_init+0xf0>
   818b0:	9137e000 	add	x0, x0, #0xdf8
   818b4:	97fffdf1 	bl	81078 <uart_puts>
   818b8:	17ffffc8 	b	817d8 <exc_handler+0xf0>
   818bc:	90000000 	adrp	x0, 81000 <uart_init+0xf0>
   818c0:	91374000 	add	x0, x0, #0xdd0
   818c4:	97fffded 	bl	81078 <uart_puts>
   818c8:	17ffffc4 	b	817d8 <exc_handler+0xf0>
   818cc:	90000000 	adrp	x0, 81000 <uart_init+0xf0>
   818d0:	9137a000 	add	x0, x0, #0xde8
   818d4:	97fffde9 	bl	81078 <uart_puts>
   818d8:	17ffffc0 	b	817d8 <exc_handler+0xf0>
   818dc:	90000000 	adrp	x0, 81000 <uart_init+0xf0>
   818e0:	9139c000 	add	x0, x0, #0xe70
   818e4:	97fffde5 	bl	81078 <uart_puts>
   818e8:	17ffffa5 	b	8177c <exc_handler+0x94>
   818ec:	90000000 	adrp	x0, 81000 <uart_init+0xf0>
   818f0:	9136e000 	add	x0, x0, #0xdb8
   818f4:	97fffde1 	bl	81078 <uart_puts>
   818f8:	17ffffb8 	b	817d8 <exc_handler+0xf0>
   818fc:	90000000 	adrp	x0, 81000 <uart_init+0xf0>
   81900:	913c8000 	add	x0, x0, #0xf20
   81904:	97fffddd 	bl	81078 <uart_puts>
   81908:	17ffffb4 	b	817d8 <exc_handler+0xf0>
   8190c:	90000000 	adrp	x0, 81000 <uart_init+0xf0>
   81910:	913b8000 	add	x0, x0, #0xee0
   81914:	97fffdd9 	bl	81078 <uart_puts>
   81918:	17ffffa6 	b	817b0 <exc_handler+0xc8>
   8191c:	90000000 	adrp	x0, 81000 <uart_init+0xf0>
   81920:	913b2000 	add	x0, x0, #0xec8
   81924:	97fffdd5 	bl	81078 <uart_puts>
   81928:	17ffffa2 	b	817b0 <exc_handler+0xc8>
   8192c:	90000000 	adrp	x0, 81000 <uart_init+0xf0>
   81930:	913be000 	add	x0, x0, #0xef8
   81934:	97fffdd1 	bl	81078 <uart_puts>
   81938:	17ffff9e 	b	817b0 <exc_handler+0xc8>
   8193c:	90000000 	adrp	x0, 81000 <uart_init+0xf0>
   81940:	913d0000 	add	x0, x0, #0xf40
   81944:	97fffdcd 	bl	81078 <uart_puts>
   81948:	17ffffa4 	b	817d8 <exc_handler+0xf0>
   8194c:	90000000 	adrp	x0, 81000 <uart_init+0xf0>
   81950:	913cc000 	add	x0, x0, #0xf30
   81954:	97fffdc9 	bl	81078 <uart_puts>
   81958:	17ffffa0 	b	817d8 <exc_handler+0xf0>
   8195c:	90000000 	adrp	x0, 81000 <uart_init+0xf0>
   81960:	9138e000 	add	x0, x0, #0xe38
   81964:	97fffdc5 	bl	81078 <uart_puts>
   81968:	17ffff9c 	b	817d8 <exc_handler+0xf0>
   8196c:	f1009a7f 	cmp	x19, #0x26
   81970:	540002e0 	b.eq	819cc <exc_handler+0x2e4>  // b.none
   81974:	f100b27f 	cmp	x19, #0x2c
   81978:	54fff701 	b.ne	81858 <exc_handler+0x170>  // b.any
   8197c:	90000000 	adrp	x0, 81000 <uart_init+0xf0>
   81980:	913a8000 	add	x0, x0, #0xea0
   81984:	97fffdbd 	bl	81078 <uart_puts>
   81988:	17ffff94 	b	817d8 <exc_handler+0xf0>
   8198c:	90000000 	adrp	x0, 81000 <uart_init+0xf0>
   81990:	91386000 	add	x0, x0, #0xe18
   81994:	97fffdb9 	bl	81078 <uart_puts>
   81998:	17ffff90 	b	817d8 <exc_handler+0xf0>
   8199c:	90000000 	adrp	x0, 81000 <uart_init+0xf0>
   819a0:	91362000 	add	x0, x0, #0xd88
   819a4:	97fffdb5 	bl	81078 <uart_puts>
   819a8:	17ffff64 	b	81738 <exc_handler+0x50>
   819ac:	90000000 	adrp	x0, 81000 <uart_init+0xf0>
   819b0:	91366000 	add	x0, x0, #0xd98
   819b4:	97fffdb1 	bl	81078 <uart_puts>
   819b8:	17ffff60 	b	81738 <exc_handler+0x50>
   819bc:	90000000 	adrp	x0, 81000 <uart_init+0xf0>
   819c0:	91368000 	add	x0, x0, #0xda0
   819c4:	97fffdad 	bl	81078 <uart_puts>
   819c8:	17ffff5c 	b	81738 <exc_handler+0x50>
   819cc:	90000000 	adrp	x0, 81000 <uart_init+0xf0>
   819d0:	913a2000 	add	x0, x0, #0xe88
   819d4:	97fffda9 	bl	81078 <uart_puts>
   819d8:	17ffff80 	b	817d8 <exc_handler+0xf0>
   819dc:	00000000 	.inst	0x00000000 ; undefined

00000000000819e0 <abort>:
   819e0:	d503201f 	nop
   819e4:	17ffffff 	b	819e0 <abort>

Disassembly of section .rodata:

00000000000819e8 <font-0x40>:
   819e8:	4f525245 	.word	0x4f525245
   819ec:	34203a52 	.word	0x34203a52
   819f0:	7267206b 	.word	0x7267206b
   819f4:	6c756e61 	.word	0x6c756e61
   819f8:	726f2065 	.word	0x726f2065
   819fc:	20363320 	.word	0x20363320
   81a00:	20746962 	.word	0x20746962
   81a04:	72646461 	.word	0x72646461
   81a08:	20737365 	.word	0x20737365
   81a0c:	63617073 	.word	0x63617073
   81a10:	6f6e2065 	.word	0x6f6e2065
   81a14:	75732074 	.word	0x75732074
   81a18:	726f7070 	.word	0x726f7070
   81a1c:	0a646574 	.word	0x0a646574
	...

0000000000081a28 <font>:
	...
   81a30:	18181818 	.word	0x18181818
   81a34:	00001800 	.word	0x00001800
   81a38:	00446666 	.word	0x00446666
   81a3c:	00000000 	.word	0x00000000
   81a40:	287e1414 	.word	0x287e1414
   81a44:	0000287e 	.word	0x0000287e
   81a48:	3e7c6a3c 	.word	0x3e7c6a3c
   81a4c:	00103c56 	.word	0x00103c56
   81a50:	14285422 	.word	0x14285422
   81a54:	0000442a 	.word	0x0000442a
   81a58:	4c324830 	.word	0x4c324830
   81a5c:	0000324c 	.word	0x0000324c
   81a60:	00101818 	.word	0x00101818
   81a64:	00000000 	.word	0x00000000
   81a68:	3030180c 	.word	0x3030180c
   81a6c:	0c183030 	.word	0x0c183030
   81a70:	0c0c1830 	.word	0x0c0c1830
   81a74:	30180c0c 	.word	0x30180c0c
   81a78:	24187e18 	.word	0x24187e18
   81a7c:	00000000 	.word	0x00000000
   81a80:	7e181800 	.word	0x7e181800
   81a84:	00001818 	.word	0x00001818
   81a88:	00000000 	.word	0x00000000
   81a8c:	00101818 	.word	0x00101818
   81a90:	3c000000 	.word	0x3c000000
	...
   81a9c:	00001818 	.word	0x00001818
   81aa0:	180c0602 	.word	0x180c0602
   81aa4:	00406030 	.word	0x00406030
   81aa8:	524a643a 	.word	0x524a643a
   81aac:	00005c26 	.word	0x00005c26
   81ab0:	18183818 	.word	0x18183818
   81ab4:	00003c18 	.word	0x00003c18
   81ab8:	180c4c38 	.word	0x180c4c38
   81abc:	00007e30 	.word	0x00007e30
   81ac0:	061c463c 	.word	0x061c463c
   81ac4:	00003c46 	.word	0x00003c46
   81ac8:	4c2c1c0c 	.word	0x4c2c1c0c
   81acc:	00000c7e 	.word	0x00000c7e
   81ad0:	067c607e 	.word	0x067c607e
   81ad4:	00003c46 	.word	0x00003c46
   81ad8:	667c603c 	.word	0x667c603c
   81adc:	00003c66 	.word	0x00003c66
   81ae0:	3e0c667e 	.word	0x3e0c667e
   81ae4:	00001818 	.word	0x00001818
   81ae8:	663c663c 	.word	0x663c663c
   81aec:	00003c66 	.word	0x00003c66
   81af0:	3e66663c 	.word	0x3e66663c
   81af4:	00003c06 	.word	0x00003c06
   81af8:	00181800 	.word	0x00181800
   81afc:	00001818 	.word	0x00001818
   81b00:	00181800 	.word	0x00181800
   81b04:	00101818 	.word	0x00101818
   81b08:	60180600 	.word	0x60180600
   81b0c:	00000618 	.word	0x00000618
   81b10:	007e0000 	.word	0x007e0000
   81b14:	0000007e 	.word	0x0000007e
   81b18:	06186000 	.word	0x06186000
   81b1c:	00006018 	.word	0x00006018
   81b20:	0c66663c 	.word	0x0c66663c
   81b24:	00180018 	.word	0x00180018
   81b28:	aaba827c 	.word	0xaaba827c
   81b2c:	003e40be 	.word	0x003e40be
   81b30:	7e243c18 	.word	0x7e243c18
   81b34:	00006666 	.word	0x00006666
   81b38:	667c667c 	.word	0x667c667c
   81b3c:	00007c66 	.word	0x00007c66
   81b40:	6260663c 	.word	0x6260663c
   81b44:	00003c7e 	.word	0x00003c7e
   81b48:	6666667c 	.word	0x6666667c
   81b4c:	00007c7e 	.word	0x00007c7e
   81b50:	607c607e 	.word	0x607c607e
   81b54:	00007e7e 	.word	0x00007e7e
   81b58:	607c607e 	.word	0x607c607e
   81b5c:	00006060 	.word	0x00006060
   81b60:	6e60663c 	.word	0x6e60663c
   81b64:	00003c66 	.word	0x00003c66
   81b68:	667e6666 	.word	0x667e6666
   81b6c:	00006666 	.word	0x00006666
   81b70:	1818187e 	.word	0x1818187e
   81b74:	00007e7e 	.word	0x00007e7e
   81b78:	4c0c0c3e 	.word	0x4c0c0c3e
   81b7c:	0000387c 	.word	0x0000387c
   81b80:	78786c66 	.word	0x78786c66
   81b84:	0000666c 	.word	0x0000666c
   81b88:	60606060 	.word	0x60606060
   81b8c:	00007e7e 	.word	0x00007e7e
   81b90:	5a7e6642 	.word	0x5a7e6642
   81b94:	0000425a 	.word	0x0000425a
   81b98:	7e766646 	.word	0x7e766646
   81b9c:	0000666e 	.word	0x0000666e
   81ba0:	6666663c 	.word	0x6666663c
   81ba4:	00003c7e 	.word	0x00003c7e
   81ba8:	7c7e667c 	.word	0x7c7e667c
   81bac:	00006060 	.word	0x00006060
   81bb0:	6a62663c 	.word	0x6a62663c
   81bb4:	00023c7e 	.word	0x00023c7e
   81bb8:	7c7e667c 	.word	0x7c7e667c
   81bbc:	0000666c 	.word	0x0000666c
   81bc0:	3e7c623c 	.word	0x3e7c623c
   81bc4:	00003c46 	.word	0x00003c46
   81bc8:	1818187e 	.word	0x1818187e
   81bcc:	00001818 	.word	0x00001818
   81bd0:	66666666 	.word	0x66666666
   81bd4:	00003c7e 	.word	0x00003c7e
   81bd8:	24666666 	.word	0x24666666
   81bdc:	0000183c 	.word	0x0000183c
   81be0:	7e5a5a42 	.word	0x7e5a5a42
   81be4:	00004266 	.word	0x00004266
   81be8:	3c183c66 	.word	0x3c183c66
   81bec:	00004266 	.word	0x00004266
   81bf0:	183c6666 	.word	0x183c6666
   81bf4:	00001818 	.word	0x00001818
   81bf8:	30180c7e 	.word	0x30180c7e
   81bfc:	00007e7e 	.word	0x00007e7e
   81c00:	1818181c 	.word	0x1818181c
   81c04:	1c181818 	.word	0x1c181818
   81c08:	18306040 	.word	0x18306040
   81c0c:	0002060c 	.word	0x0002060c
   81c10:	18181838 	.word	0x18181838
   81c14:	38181818 	.word	0x38181818
   81c18:	00422418 	.word	0x00422418
	...
   81c24:	ff000000 	.word	0xff000000
   81c28:	00081818 	.word	0x00081818
   81c2c:	00000000 	.word	0x00000000
   81c30:	64380000 	.word	0x64380000
   81c34:	00003a64 	.word	0x00003a64
   81c38:	323c3030 	.word	0x323c3030
   81c3c:	00005c32 	.word	0x00005c32
   81c40:	603c0000 	.word	0x603c0000
   81c44:	00003c62 	.word	0x00003c62
   81c48:	4c3c0c0c 	.word	0x4c3c0c0c
   81c4c:	00003a4c 	.word	0x00003a4c
   81c50:	68380000 	.word	0x68380000
   81c54:	00003c72 	.word	0x00003c72
   81c58:	321c0000 	.word	0x321c0000
   81c5c:	30307c30 	.word	0x30307c30
   81c60:	663a0000 	.word	0x663a0000
   81c64:	3c463e66 	.word	0x3c463e66
   81c68:	627c6060 	.word	0x627c6060
   81c6c:	00006262 	.word	0x00006262
   81c70:	30300030 	.word	0x30300030
   81c74:	00001834 	.word	0x00001834
   81c78:	06060006 	.word	0x06060006
   81c7c:	3c460606 	.word	0x3c460606
   81c80:	78686460 	.word	0x78686460
   81c84:	00006264 	.word	0x00006264
   81c88:	30303030 	.word	0x30303030
   81c8c:	00001834 	.word	0x00001834
   81c90:	6a540000 	.word	0x6a540000
   81c94:	0000626a 	.word	0x0000626a
   81c98:	625c0000 	.word	0x625c0000
   81c9c:	00006262 	.word	0x00006262
   81ca0:	623c0000 	.word	0x623c0000
   81ca4:	00003c62 	.word	0x00003c62
   81ca8:	665c0000 	.word	0x665c0000
   81cac:	60607c66 	.word	0x60607c66
   81cb0:	4c340000 	.word	0x4c340000
   81cb4:	0c0e3c4c 	.word	0x0c0e3c4c
   81cb8:	625c0000 	.word	0x625c0000
   81cbc:	00006060 	.word	0x00006060
   81cc0:	18623c00 	.word	0x18623c00
   81cc4:	00003c46 	.word	0x00003c46
   81cc8:	30783030 	.word	0x30783030
   81ccc:	00001c32 	.word	0x00001c32
   81cd0:	66660000 	.word	0x66660000
   81cd4:	00003a66 	.word	0x00003a66
   81cd8:	62620000 	.word	0x62620000
   81cdc:	00001834 	.word	0x00001834
   81ce0:	5a420000 	.word	0x5a420000
   81ce4:	00002c5a 	.word	0x00002c5a
   81ce8:	34620000 	.word	0x34620000
   81cec:	00006618 	.word	0x00006618
   81cf0:	66660000 	.word	0x66660000
   81cf4:	3c463e66 	.word	0x3c463e66
   81cf8:	0c7e0000 	.word	0x0c7e0000
   81cfc:	00007e30 	.word	0x00007e30
   81d00:	1830301c 	.word	0x1830301c
   81d04:	1c303018 	.word	0x1c303018
   81d08:	18181818 	.word	0x18181818
   81d0c:	18181818 	.word	0x18181818
   81d10:	180c0c38 	.word	0x180c0c38
   81d14:	380c0c18 	.word	0x380c0c18
   81d18:	5a700000 	.word	0x5a700000
   81d1c:	0000000e 	.word	0x0000000e
   81d20:	74726155 	.word	0x74726155
   81d24:	696e6920 	.word	0x696e6920
   81d28:	0a646574 	.word	0x0a646574
   81d2c:	00000000 	.word	0x00000000
   81d30:	6d617246 	.word	0x6d617246
   81d34:	66756265 	.word	0x66756265
   81d38:	20726566 	.word	0x20726566
   81d3c:	74696e69 	.word	0x74696e69
   81d40:	000a6465 	.word	0x000a6465
   81d44:	00000000 	.word	0x00000000
   81d48:	74206948 	.word	0x74206948
   81d4c:	20736968 	.word	0x20736968
   81d50:	61207369 	.word	0x61207369
   81d54:	6e6f6c20 	.word	0x6e6f6c20
   81d58:	74732067 	.word	0x74732067
   81d5c:	676e6972 	.word	0x676e6972
   81d60:	74697720 	.word	0x74697720
   81d64:	65742068 	.word	0x65742068
   81d68:	00007478 	.word	0x00007478
   81d6c:	00000000 	.word	0x00000000
   81d70:	38313032 	.word	0x38313032
   81d74:	2d30312d 	.word	0x2d30312d
   81d78:	315f3832 	.word	0x315f3832
   81d7c:	37323a37 	.word	0x37323a37
   81d80:	0031303a 	.word	0x0031303a
   81d84:	00000000 	.word	0x00000000
   81d88:	636e7953 	.word	0x636e7953
   81d8c:	6e6f7268 	.word	0x6e6f7268
   81d90:	0073756f 	.word	0x0073756f
   81d94:	00000000 	.word	0x00000000
   81d98:	00515249 	.word	0x00515249
   81d9c:	00000000 	.word	0x00000000
   81da0:	00514946 	.word	0x00514946
   81da4:	00000000 	.word	0x00000000
   81da8:	72724553 	.word	0x72724553
   81dac:	0000726f 	.word	0x0000726f
   81db0:	0000203a 	.word	0x0000203a
   81db4:	00000000 	.word	0x00000000
   81db8:	6e6b6e55 	.word	0x6e6b6e55
   81dbc:	006e776f 	.word	0x006e776f
   81dc0:	70617254 	.word	0x70617254
   81dc4:	20646570 	.word	0x20646570
   81dc8:	2f494657 	.word	0x2f494657
   81dcc:	00454657 	.word	0x00454657
   81dd0:	656c6c49 	.word	0x656c6c49
   81dd4:	206c6167 	.word	0x206c6167
   81dd8:	63657865 	.word	0x63657865
   81ddc:	6f697475 	.word	0x6f697475
   81de0:	0000006e 	.word	0x0000006e
   81de4:	00000000 	.word	0x00000000
   81de8:	74737953 	.word	0x74737953
   81dec:	63206d65 	.word	0x63206d65
   81df0:	006c6c61 	.word	0x006c6c61
   81df4:	00000000 	.word	0x00000000
   81df8:	74736e49 	.word	0x74736e49
   81dfc:	74637572 	.word	0x74637572
   81e00:	206e6f69 	.word	0x206e6f69
   81e04:	726f6261 	.word	0x726f6261
   81e08:	6c202c74 	.word	0x6c202c74
   81e0c:	7265776f 	.word	0x7265776f
   81e10:	004c4520 	.word	0x004c4520
   81e14:	00000000 	.word	0x00000000
   81e18:	74736e49 	.word	0x74736e49
   81e1c:	74637572 	.word	0x74637572
   81e20:	206e6f69 	.word	0x206e6f69
   81e24:	726f6261 	.word	0x726f6261
   81e28:	73202c74 	.word	0x73202c74
   81e2c:	20656d61 	.word	0x20656d61
   81e30:	00004c45 	.word	0x00004c45
   81e34:	00000000 	.word	0x00000000
   81e38:	74736e49 	.word	0x74736e49
   81e3c:	74637572 	.word	0x74637572
   81e40:	206e6f69 	.word	0x206e6f69
   81e44:	67696c61 	.word	0x67696c61
   81e48:	6e656d6e 	.word	0x6e656d6e
   81e4c:	61662074 	.word	0x61662074
   81e50:	00746c75 	.word	0x00746c75
   81e54:	00000000 	.word	0x00000000
   81e58:	61746144 	.word	0x61746144
   81e5c:	6f626120 	.word	0x6f626120
   81e60:	202c7472 	.word	0x202c7472
   81e64:	65776f6c 	.word	0x65776f6c
   81e68:	4c452072 	.word	0x4c452072
   81e6c:	00000000 	.word	0x00000000
   81e70:	61746144 	.word	0x61746144
   81e74:	6f626120 	.word	0x6f626120
   81e78:	202c7472 	.word	0x202c7472
   81e7c:	656d6173 	.word	0x656d6173
   81e80:	004c4520 	.word	0x004c4520
   81e84:	00000000 	.word	0x00000000
   81e88:	63617453 	.word	0x63617453
   81e8c:	6c61206b 	.word	0x6c61206b
   81e90:	6d6e6769 	.word	0x6d6e6769
   81e94:	20746e65 	.word	0x20746e65
   81e98:	6c756166 	.word	0x6c756166
   81e9c:	00000074 	.word	0x00000074
   81ea0:	616f6c46 	.word	0x616f6c46
   81ea4:	676e6974 	.word	0x676e6974
   81ea8:	696f7020 	.word	0x696f7020
   81eac:	0000746e 	.word	0x0000746e
   81eb0:	72646441 	.word	0x72646441
   81eb4:	20737365 	.word	0x20737365
   81eb8:	657a6973 	.word	0x657a6973
   81ebc:	75616620 	.word	0x75616620
   81ec0:	0000746c 	.word	0x0000746c
   81ec4:	00000000 	.word	0x00000000
   81ec8:	6e617254 	.word	0x6e617254
   81ecc:	74616c73 	.word	0x74616c73
   81ed0:	206e6f69 	.word	0x206e6f69
   81ed4:	6c756166 	.word	0x6c756166
   81ed8:	00000074 	.word	0x00000074
   81edc:	00000000 	.word	0x00000000
   81ee0:	65636341 	.word	0x65636341
   81ee4:	66207373 	.word	0x66207373
   81ee8:	2067616c 	.word	0x2067616c
   81eec:	6c756166 	.word	0x6c756166
   81ef0:	00000074 	.word	0x00000074
   81ef4:	00000000 	.word	0x00000000
   81ef8:	6d726550 	.word	0x6d726550
   81efc:	69737369 	.word	0x69737369
   81f00:	66206e6f 	.word	0x66206e6f
   81f04:	746c7561 	.word	0x746c7561
	...
   81f10:	20746120 	.word	0x20746120
   81f14:	6576656c 	.word	0x6576656c
   81f18:	0030206c 	.word	0x0030206c
   81f1c:	00000000 	.word	0x00000000
   81f20:	20746120 	.word	0x20746120
   81f24:	6576656c 	.word	0x6576656c
   81f28:	0031206c 	.word	0x0031206c
   81f2c:	00000000 	.word	0x00000000
   81f30:	20746120 	.word	0x20746120
   81f34:	6576656c 	.word	0x6576656c
   81f38:	0032206c 	.word	0x0032206c
   81f3c:	00000000 	.word	0x00000000
   81f40:	20746120 	.word	0x20746120
   81f44:	6576656c 	.word	0x6576656c
   81f48:	0033206c 	.word	0x0033206c
   81f4c:	00000000 	.word	0x00000000
   81f50:	20200a3a 	.word	0x20200a3a
   81f54:	5f525345 	.word	0x5f525345
   81f58:	20314c45 	.word	0x20314c45
   81f5c:	00000000 	.word	0x00000000
   81f60:	524c4520 	.word	0x524c4520
   81f64:	314c455f 	.word	0x314c455f
   81f68:	00000020 	.word	0x00000020
   81f6c:	00000000 	.word	0x00000000
   81f70:	5053200a 	.word	0x5053200a
   81f74:	455f5253 	.word	0x455f5253
   81f78:	0020314c 	.word	0x0020314c
   81f7c:	00000000 	.word	0x00000000
   81f80:	52414620 	.word	0x52414620
   81f84:	314c455f 	.word	0x314c455f
   81f88:	00000020 	.word	0x00000020
   81f8c:	00000000 	.word	0x00000000
   81f90:	0000000a 	.word	0x0000000a
   81f94:	00000000 	.word	0x00000000
   81f98:	0000202c 	.word	0x0000202c
   81f9c:	00000000 	.word	0x00000000

Disassembly of section .data:

0000000000082000 <DATE>:
   82000:	00081d70 	.word	0x00081d70
   82004:	00000000 	.word	0x00000000

Disassembly of section .got:

0000000000082008 <_GLOBAL_OFFSET_TABLE_>:
	...
   82010:	00082080 	.inst	0x00082080 ; undefined
   82014:	00000000 	.inst	0x00000000 ; undefined
   82018:	00080998 	.inst	0x00080998 ; undefined
   8201c:	00000000 	.inst	0x00000000 ; undefined
   82020:	00081a28 	.inst	0x00081a28 ; undefined
   82024:	00000000 	.inst	0x00000000 ; undefined
   82028:	00080c98 	.inst	0x00080c98 ; undefined
   8202c:	00000000 	.inst	0x00000000 ; undefined
   82030:	00083080 	.inst	0x00083080 ; undefined
   82034:	00000000 	.inst	0x00000000 ; undefined
   82038:	00082000 	.inst	0x00082000 ; undefined
   8203c:	00000000 	.inst	0x00000000 ; undefined
   82040:	00084000 	.inst	0x00084000 ; undefined
   82044:	00000000 	.inst	0x00000000 ; undefined
   82048:	00083088 	.inst	0x00083088 ; undefined
   8204c:	00000000 	.inst	0x00000000 ; undefined
   82050:	00083090 	.inst	0x00083090 ; undefined
   82054:	00000000 	.inst	0x00000000 ; undefined
   82058:	00083098 	.inst	0x00083098 ; undefined
   8205c:	00000000 	.inst	0x00000000 ; undefined
   82060:	0008309c 	.inst	0x0008309c ; undefined
   82064:	00000000 	.inst	0x00000000 ; undefined

Disassembly of section .got.plt:

0000000000082068 <.got.plt>:
	...

Disassembly of section .bss:

0000000000082080 <mbox>:
	...

0000000000083080 <framebuffer>:
	...

0000000000083088 <pitch>:
	...

0000000000083090 <current_buffer>:
	...

0000000000083098 <height>:
   83098:	00000000 	.inst	0x00000000 ; undefined

000000000008309c <width>:
   8309c:	00000000 	.inst	0x00000000 ; undefined
